
hello.elf:     file format elf32-littleriscv


Disassembly of section .text:

10000000 <start>:
10000000:	00000093          	li	ra,0
10000004:	00000193          	li	gp,0
10000008:	00000213          	li	tp,0
1000000c:	00000293          	li	t0,0
10000010:	00000313          	li	t1,0
10000014:	00000393          	li	t2,0
10000018:	00000413          	li	s0,0
1000001c:	00000493          	li	s1,0
10000020:	00000513          	li	a0,0
10000024:	00000593          	li	a1,0
10000028:	00000613          	li	a2,0
1000002c:	00000693          	li	a3,0
10000030:	00000713          	li	a4,0
10000034:	00000793          	li	a5,0
10000038:	00000813          	li	a6,0
1000003c:	00000893          	li	a7,0
10000040:	00000913          	li	s2,0
10000044:	00000993          	li	s3,0
10000048:	00000a13          	li	s4,0
1000004c:	00000a93          	li	s5,0
10000050:	00000b13          	li	s6,0
10000054:	00000b93          	li	s7,0
10000058:	00000c13          	li	s8,0
1000005c:	00000c93          	li	s9,0
10000060:	00000d13          	li	s10,0
10000064:	00000d93          	li	s11,0
10000068:	00000e13          	li	t3,0
1000006c:	00000e93          	li	t4,0
10000070:	00000f13          	li	t5,0
10000074:	00000f93          	li	t6,0
10000078:	00003517          	auipc	a0,0x3
1000007c:	82850513          	addi	a0,a0,-2008 # 100028a0 <_etext>
10000080:	f1000597          	auipc	a1,0xf1000
10000084:	f8058593          	addi	a1,a1,-128 # 1000000 <_edata>
10000088:	f1000617          	auipc	a2,0xf1000
1000008c:	f7860613          	addi	a2,a2,-136 # 1000000 <_edata>
10000090:	00c5dc63          	bge	a1,a2,100000a8 <end_init_data>

10000094 <loop_init_data>:
10000094:	00052683          	lw	a3,0(a0)
10000098:	00d5a023          	sw	a3,0(a1)
1000009c:	00450513          	addi	a0,a0,4
100000a0:	00458593          	addi	a1,a1,4
100000a4:	fec5c8e3          	blt	a1,a2,10000094 <loop_init_data>

100000a8 <end_init_data>:
100000a8:	f1000517          	auipc	a0,0xf1000
100000ac:	f5850513          	addi	a0,a0,-168 # 1000000 <_edata>
100000b0:	f1000597          	auipc	a1,0xf1000
100000b4:	f5058593          	addi	a1,a1,-176 # 1000000 <_edata>
100000b8:	00b55863          	bge	a0,a1,100000c8 <end_init_bss>

100000bc <loop_init_bss>:
100000bc:	00052023          	sw	zero,0(a0)
100000c0:	00450513          	addi	a0,a0,4
100000c4:	feb54ce3          	blt	a0,a1,100000bc <loop_init_bss>

100000c8 <end_init_bss>:
100000c8:	061000ef          	jal	ra,10000928 <main>

100000cc <loop>:
100000cc:	0000006f          	j	100000cc <loop>

100000d0 <flashio_worker_begin>:
100000d0:	280002b7          	lui	t0,0x28000
100000d4:	12000313          	li	t1,288
100000d8:	00629023          	sh	t1,0(t0) # 28000000 <_etext+0x17ffd760>
100000dc:	000281a3          	sb	zero,3(t0)
100000e0:	02060863          	beqz	a2,10000110 <flashio_worker_L1>
100000e4:	00800f13          	li	t5,8
100000e8:	0ff67393          	andi	t2,a2,255

100000ec <flashio_worker_L4>:
100000ec:	0073de93          	srli	t4,t2,0x7
100000f0:	01d28023          	sb	t4,0(t0)
100000f4:	010eee93          	ori	t4,t4,16
100000f8:	01d28023          	sb	t4,0(t0)
100000fc:	00139393          	slli	t2,t2,0x1
10000100:	0ff3f393          	andi	t2,t2,255
10000104:	ffff0f13          	addi	t5,t5,-1
10000108:	fe0f12e3          	bnez	t5,100000ec <flashio_worker_L4>
1000010c:	00628023          	sb	t1,0(t0)

10000110 <flashio_worker_L1>:
10000110:	06058063          	beqz	a1,10000170 <flashio_worker_L3>
10000114:	02000f13          	li	t5,32
10000118:	00052383          	lw	t2,0(a0)

1000011c <flashio_worker_LY>:
1000011c:	00800f93          	li	t6,8

10000120 <flashio_worker_L2>:
10000120:	01f3de93          	srli	t4,t2,0x1f
10000124:	01d28023          	sb	t4,0(t0)
10000128:	010eee93          	ori	t4,t4,16
1000012c:	01d28023          	sb	t4,0(t0)
10000130:	0002ce83          	lbu	t4,0(t0)
10000134:	002efe93          	andi	t4,t4,2
10000138:	001ede93          	srli	t4,t4,0x1
1000013c:	00139393          	slli	t2,t2,0x1
10000140:	01d3e3b3          	or	t2,t2,t4
10000144:	ffff0f13          	addi	t5,t5,-1
10000148:	000f1863          	bnez	t5,10000158 <flashio_worker_LX>
1000014c:	00752023          	sw	t2,0(a0)
10000150:	00450513          	addi	a0,a0,4
10000154:	00052383          	lw	t2,0(a0)

10000158 <flashio_worker_LX>:
10000158:	ffff8f93          	addi	t6,t6,-1
1000015c:	fc0f92e3          	bnez	t6,10000120 <flashio_worker_L2>
10000160:	fff58593          	addi	a1,a1,-1
10000164:	fa059ce3          	bnez	a1,1000011c <flashio_worker_LY>
10000168:	000f0463          	beqz	t5,10000170 <flashio_worker_L3>
1000016c:	00752023          	sw	t2,0(a0)

10000170 <flashio_worker_L3>:
10000170:	08000313          	li	t1,128
10000174:	006281a3          	sb	t1,3(t0)
10000178:	00008067          	ret

1000017c <putchar>:
1000017c:	fe010113          	addi	sp,sp,-32
10000180:	00112e23          	sw	ra,28(sp)
10000184:	00812c23          	sw	s0,24(sp)
10000188:	02010413          	addi	s0,sp,32
1000018c:	fea42623          	sw	a0,-20(s0)
10000190:	fec42703          	lw	a4,-20(s0)
10000194:	00a00793          	li	a5,10
10000198:	00f71663          	bne	a4,a5,100001a4 <putchar+0x28>
1000019c:	00d00513          	li	a0,13
100001a0:	fddff0ef          	jal	ra,1000017c <putchar>
100001a4:	200007b7          	lui	a5,0x20000
100001a8:	00478793          	addi	a5,a5,4 # 20000004 <_etext+0xfffd764>
100001ac:	fec42703          	lw	a4,-20(s0)
100001b0:	00e7a023          	sw	a4,0(a5)
100001b4:	00000013          	nop
100001b8:	01c12083          	lw	ra,28(sp)
100001bc:	01812403          	lw	s0,24(sp)
100001c0:	02010113          	addi	sp,sp,32
100001c4:	00008067          	ret

100001c8 <print>:
100001c8:	fe010113          	addi	sp,sp,-32
100001cc:	00112e23          	sw	ra,28(sp)
100001d0:	00812c23          	sw	s0,24(sp)
100001d4:	02010413          	addi	s0,sp,32
100001d8:	fea42623          	sw	a0,-20(s0)
100001dc:	01c0006f          	j	100001f8 <print+0x30>
100001e0:	fec42783          	lw	a5,-20(s0)
100001e4:	00178713          	addi	a4,a5,1
100001e8:	fee42623          	sw	a4,-20(s0)
100001ec:	0007c783          	lbu	a5,0(a5)
100001f0:	00078513          	mv	a0,a5
100001f4:	f89ff0ef          	jal	ra,1000017c <putchar>
100001f8:	fec42783          	lw	a5,-20(s0)
100001fc:	0007c783          	lbu	a5,0(a5)
10000200:	fe0790e3          	bnez	a5,100001e0 <print+0x18>
10000204:	00000013          	nop
10000208:	01c12083          	lw	ra,28(sp)
1000020c:	01812403          	lw	s0,24(sp)
10000210:	02010113          	addi	sp,sp,32
10000214:	00008067          	ret

10000218 <print_hex>:
10000218:	fd010113          	addi	sp,sp,-48
1000021c:	02112623          	sw	ra,44(sp)
10000220:	02812423          	sw	s0,40(sp)
10000224:	03010413          	addi	s0,sp,48
10000228:	fca42e23          	sw	a0,-36(s0)
1000022c:	fcb42c23          	sw	a1,-40(s0)
10000230:	fd842783          	lw	a5,-40(s0)
10000234:	fff78793          	addi	a5,a5,-1
10000238:	fef42623          	sw	a5,-20(s0)
1000023c:	0440006f          	j	10000280 <print_hex+0x68>
10000240:	fec42783          	lw	a5,-20(s0)
10000244:	00279793          	slli	a5,a5,0x2
10000248:	fdc42703          	lw	a4,-36(s0)
1000024c:	00f757b3          	srl	a5,a4,a5
10000250:	00f7f713          	andi	a4,a5,15
10000254:	100037b7          	lui	a5,0x10003
10000258:	85078793          	addi	a5,a5,-1968 # 10002850 <CGRA_load_bs+0x18d0>
1000025c:	00f707b3          	add	a5,a4,a5
10000260:	0007c783          	lbu	a5,0(a5)
10000264:	fef405a3          	sb	a5,-21(s0)
10000268:	feb44783          	lbu	a5,-21(s0)
1000026c:	00078513          	mv	a0,a5
10000270:	f0dff0ef          	jal	ra,1000017c <putchar>
10000274:	fec42783          	lw	a5,-20(s0)
10000278:	fff78793          	addi	a5,a5,-1
1000027c:	fef42623          	sw	a5,-20(s0)
10000280:	fec42783          	lw	a5,-20(s0)
10000284:	fa07dee3          	bgez	a5,10000240 <print_hex+0x28>
10000288:	00000013          	nop
1000028c:	02c12083          	lw	ra,44(sp)
10000290:	02812403          	lw	s0,40(sp)
10000294:	03010113          	addi	sp,sp,48
10000298:	00008067          	ret

1000029c <print_dec>:
1000029c:	fe010113          	addi	sp,sp,-32
100002a0:	00112e23          	sw	ra,28(sp)
100002a4:	00812c23          	sw	s0,24(sp)
100002a8:	02010413          	addi	s0,sp,32
100002ac:	fea42623          	sw	a0,-20(s0)
100002b0:	fec42703          	lw	a4,-20(s0)
100002b4:	7cf00793          	li	a5,1999
100002b8:	00e7fa63          	bgeu	a5,a4,100002cc <print_dec+0x30>
100002bc:	100037b7          	lui	a5,0x10003
100002c0:	86478513          	addi	a0,a5,-1948 # 10002864 <CGRA_load_bs+0x18e4>
100002c4:	f05ff0ef          	jal	ra,100001c8 <print>
100002c8:	4100006f          	j	100006d8 <print_dec+0x43c>
100002cc:	fec42703          	lw	a4,-20(s0)
100002d0:	3e700793          	li	a5,999
100002d4:	00e7fe63          	bgeu	a5,a4,100002f0 <print_dec+0x54>
100002d8:	03100513          	li	a0,49
100002dc:	ea1ff0ef          	jal	ra,1000017c <putchar>
100002e0:	fec42783          	lw	a5,-20(s0)
100002e4:	c1878793          	addi	a5,a5,-1000
100002e8:	fef42623          	sw	a5,-20(s0)
100002ec:	00c0006f          	j	100002f8 <print_dec+0x5c>
100002f0:	02000513          	li	a0,32
100002f4:	e89ff0ef          	jal	ra,1000017c <putchar>
100002f8:	fec42703          	lw	a4,-20(s0)
100002fc:	38300793          	li	a5,899
10000300:	00e7fe63          	bgeu	a5,a4,1000031c <print_dec+0x80>
10000304:	03900513          	li	a0,57
10000308:	e75ff0ef          	jal	ra,1000017c <putchar>
1000030c:	fec42783          	lw	a5,-20(s0)
10000310:	c7c78793          	addi	a5,a5,-900
10000314:	fef42623          	sw	a5,-20(s0)
10000318:	12c0006f          	j	10000444 <print_dec+0x1a8>
1000031c:	fec42703          	lw	a4,-20(s0)
10000320:	31f00793          	li	a5,799
10000324:	00e7fe63          	bgeu	a5,a4,10000340 <print_dec+0xa4>
10000328:	03800513          	li	a0,56
1000032c:	e51ff0ef          	jal	ra,1000017c <putchar>
10000330:	fec42783          	lw	a5,-20(s0)
10000334:	ce078793          	addi	a5,a5,-800
10000338:	fef42623          	sw	a5,-20(s0)
1000033c:	1080006f          	j	10000444 <print_dec+0x1a8>
10000340:	fec42703          	lw	a4,-20(s0)
10000344:	2bb00793          	li	a5,699
10000348:	00e7fe63          	bgeu	a5,a4,10000364 <print_dec+0xc8>
1000034c:	03700513          	li	a0,55
10000350:	e2dff0ef          	jal	ra,1000017c <putchar>
10000354:	fec42783          	lw	a5,-20(s0)
10000358:	d4478793          	addi	a5,a5,-700
1000035c:	fef42623          	sw	a5,-20(s0)
10000360:	0e40006f          	j	10000444 <print_dec+0x1a8>
10000364:	fec42703          	lw	a4,-20(s0)
10000368:	25700793          	li	a5,599
1000036c:	00e7fe63          	bgeu	a5,a4,10000388 <print_dec+0xec>
10000370:	03600513          	li	a0,54
10000374:	e09ff0ef          	jal	ra,1000017c <putchar>
10000378:	fec42783          	lw	a5,-20(s0)
1000037c:	da878793          	addi	a5,a5,-600
10000380:	fef42623          	sw	a5,-20(s0)
10000384:	0c00006f          	j	10000444 <print_dec+0x1a8>
10000388:	fec42703          	lw	a4,-20(s0)
1000038c:	1f300793          	li	a5,499
10000390:	00e7fe63          	bgeu	a5,a4,100003ac <print_dec+0x110>
10000394:	03500513          	li	a0,53
10000398:	de5ff0ef          	jal	ra,1000017c <putchar>
1000039c:	fec42783          	lw	a5,-20(s0)
100003a0:	e0c78793          	addi	a5,a5,-500
100003a4:	fef42623          	sw	a5,-20(s0)
100003a8:	09c0006f          	j	10000444 <print_dec+0x1a8>
100003ac:	fec42703          	lw	a4,-20(s0)
100003b0:	18f00793          	li	a5,399
100003b4:	00e7fe63          	bgeu	a5,a4,100003d0 <print_dec+0x134>
100003b8:	03400513          	li	a0,52
100003bc:	dc1ff0ef          	jal	ra,1000017c <putchar>
100003c0:	fec42783          	lw	a5,-20(s0)
100003c4:	e7078793          	addi	a5,a5,-400
100003c8:	fef42623          	sw	a5,-20(s0)
100003cc:	0780006f          	j	10000444 <print_dec+0x1a8>
100003d0:	fec42703          	lw	a4,-20(s0)
100003d4:	12b00793          	li	a5,299
100003d8:	00e7fe63          	bgeu	a5,a4,100003f4 <print_dec+0x158>
100003dc:	03300513          	li	a0,51
100003e0:	d9dff0ef          	jal	ra,1000017c <putchar>
100003e4:	fec42783          	lw	a5,-20(s0)
100003e8:	ed478793          	addi	a5,a5,-300
100003ec:	fef42623          	sw	a5,-20(s0)
100003f0:	0540006f          	j	10000444 <print_dec+0x1a8>
100003f4:	fec42703          	lw	a4,-20(s0)
100003f8:	0c700793          	li	a5,199
100003fc:	00e7fe63          	bgeu	a5,a4,10000418 <print_dec+0x17c>
10000400:	03200513          	li	a0,50
10000404:	d79ff0ef          	jal	ra,1000017c <putchar>
10000408:	fec42783          	lw	a5,-20(s0)
1000040c:	f3878793          	addi	a5,a5,-200
10000410:	fef42623          	sw	a5,-20(s0)
10000414:	0300006f          	j	10000444 <print_dec+0x1a8>
10000418:	fec42703          	lw	a4,-20(s0)
1000041c:	06300793          	li	a5,99
10000420:	00e7fe63          	bgeu	a5,a4,1000043c <print_dec+0x1a0>
10000424:	03100513          	li	a0,49
10000428:	d55ff0ef          	jal	ra,1000017c <putchar>
1000042c:	fec42783          	lw	a5,-20(s0)
10000430:	f9c78793          	addi	a5,a5,-100
10000434:	fef42623          	sw	a5,-20(s0)
10000438:	00c0006f          	j	10000444 <print_dec+0x1a8>
1000043c:	03000513          	li	a0,48
10000440:	d3dff0ef          	jal	ra,1000017c <putchar>
10000444:	fec42703          	lw	a4,-20(s0)
10000448:	05900793          	li	a5,89
1000044c:	00e7fe63          	bgeu	a5,a4,10000468 <print_dec+0x1cc>
10000450:	03900513          	li	a0,57
10000454:	d29ff0ef          	jal	ra,1000017c <putchar>
10000458:	fec42783          	lw	a5,-20(s0)
1000045c:	fa678793          	addi	a5,a5,-90
10000460:	fef42623          	sw	a5,-20(s0)
10000464:	12c0006f          	j	10000590 <print_dec+0x2f4>
10000468:	fec42703          	lw	a4,-20(s0)
1000046c:	04f00793          	li	a5,79
10000470:	00e7fe63          	bgeu	a5,a4,1000048c <print_dec+0x1f0>
10000474:	03800513          	li	a0,56
10000478:	d05ff0ef          	jal	ra,1000017c <putchar>
1000047c:	fec42783          	lw	a5,-20(s0)
10000480:	fb078793          	addi	a5,a5,-80
10000484:	fef42623          	sw	a5,-20(s0)
10000488:	1080006f          	j	10000590 <print_dec+0x2f4>
1000048c:	fec42703          	lw	a4,-20(s0)
10000490:	04500793          	li	a5,69
10000494:	00e7fe63          	bgeu	a5,a4,100004b0 <print_dec+0x214>
10000498:	03700513          	li	a0,55
1000049c:	ce1ff0ef          	jal	ra,1000017c <putchar>
100004a0:	fec42783          	lw	a5,-20(s0)
100004a4:	fba78793          	addi	a5,a5,-70
100004a8:	fef42623          	sw	a5,-20(s0)
100004ac:	0e40006f          	j	10000590 <print_dec+0x2f4>
100004b0:	fec42703          	lw	a4,-20(s0)
100004b4:	03b00793          	li	a5,59
100004b8:	00e7fe63          	bgeu	a5,a4,100004d4 <print_dec+0x238>
100004bc:	03600513          	li	a0,54
100004c0:	cbdff0ef          	jal	ra,1000017c <putchar>
100004c4:	fec42783          	lw	a5,-20(s0)
100004c8:	fc478793          	addi	a5,a5,-60
100004cc:	fef42623          	sw	a5,-20(s0)
100004d0:	0c00006f          	j	10000590 <print_dec+0x2f4>
100004d4:	fec42703          	lw	a4,-20(s0)
100004d8:	03100793          	li	a5,49
100004dc:	00e7fe63          	bgeu	a5,a4,100004f8 <print_dec+0x25c>
100004e0:	03500513          	li	a0,53
100004e4:	c99ff0ef          	jal	ra,1000017c <putchar>
100004e8:	fec42783          	lw	a5,-20(s0)
100004ec:	fce78793          	addi	a5,a5,-50
100004f0:	fef42623          	sw	a5,-20(s0)
100004f4:	09c0006f          	j	10000590 <print_dec+0x2f4>
100004f8:	fec42703          	lw	a4,-20(s0)
100004fc:	02700793          	li	a5,39
10000500:	00e7fe63          	bgeu	a5,a4,1000051c <print_dec+0x280>
10000504:	03400513          	li	a0,52
10000508:	c75ff0ef          	jal	ra,1000017c <putchar>
1000050c:	fec42783          	lw	a5,-20(s0)
10000510:	fd878793          	addi	a5,a5,-40
10000514:	fef42623          	sw	a5,-20(s0)
10000518:	0780006f          	j	10000590 <print_dec+0x2f4>
1000051c:	fec42703          	lw	a4,-20(s0)
10000520:	01d00793          	li	a5,29
10000524:	00e7fe63          	bgeu	a5,a4,10000540 <print_dec+0x2a4>
10000528:	03300513          	li	a0,51
1000052c:	c51ff0ef          	jal	ra,1000017c <putchar>
10000530:	fec42783          	lw	a5,-20(s0)
10000534:	fe278793          	addi	a5,a5,-30
10000538:	fef42623          	sw	a5,-20(s0)
1000053c:	0540006f          	j	10000590 <print_dec+0x2f4>
10000540:	fec42703          	lw	a4,-20(s0)
10000544:	01300793          	li	a5,19
10000548:	00e7fe63          	bgeu	a5,a4,10000564 <print_dec+0x2c8>
1000054c:	03200513          	li	a0,50
10000550:	c2dff0ef          	jal	ra,1000017c <putchar>
10000554:	fec42783          	lw	a5,-20(s0)
10000558:	fec78793          	addi	a5,a5,-20
1000055c:	fef42623          	sw	a5,-20(s0)
10000560:	0300006f          	j	10000590 <print_dec+0x2f4>
10000564:	fec42703          	lw	a4,-20(s0)
10000568:	00900793          	li	a5,9
1000056c:	00e7fe63          	bgeu	a5,a4,10000588 <print_dec+0x2ec>
10000570:	03100513          	li	a0,49
10000574:	c09ff0ef          	jal	ra,1000017c <putchar>
10000578:	fec42783          	lw	a5,-20(s0)
1000057c:	ff678793          	addi	a5,a5,-10
10000580:	fef42623          	sw	a5,-20(s0)
10000584:	00c0006f          	j	10000590 <print_dec+0x2f4>
10000588:	03000513          	li	a0,48
1000058c:	bf1ff0ef          	jal	ra,1000017c <putchar>
10000590:	fec42703          	lw	a4,-20(s0)
10000594:	00800793          	li	a5,8
10000598:	00e7fe63          	bgeu	a5,a4,100005b4 <print_dec+0x318>
1000059c:	03900513          	li	a0,57
100005a0:	bddff0ef          	jal	ra,1000017c <putchar>
100005a4:	fec42783          	lw	a5,-20(s0)
100005a8:	ff778793          	addi	a5,a5,-9
100005ac:	fef42623          	sw	a5,-20(s0)
100005b0:	1280006f          	j	100006d8 <print_dec+0x43c>
100005b4:	fec42703          	lw	a4,-20(s0)
100005b8:	00700793          	li	a5,7
100005bc:	00e7fe63          	bgeu	a5,a4,100005d8 <print_dec+0x33c>
100005c0:	03800513          	li	a0,56
100005c4:	bb9ff0ef          	jal	ra,1000017c <putchar>
100005c8:	fec42783          	lw	a5,-20(s0)
100005cc:	ff878793          	addi	a5,a5,-8
100005d0:	fef42623          	sw	a5,-20(s0)
100005d4:	1040006f          	j	100006d8 <print_dec+0x43c>
100005d8:	fec42703          	lw	a4,-20(s0)
100005dc:	00600793          	li	a5,6
100005e0:	00e7fe63          	bgeu	a5,a4,100005fc <print_dec+0x360>
100005e4:	03700513          	li	a0,55
100005e8:	b95ff0ef          	jal	ra,1000017c <putchar>
100005ec:	fec42783          	lw	a5,-20(s0)
100005f0:	ff978793          	addi	a5,a5,-7
100005f4:	fef42623          	sw	a5,-20(s0)
100005f8:	0e00006f          	j	100006d8 <print_dec+0x43c>
100005fc:	fec42703          	lw	a4,-20(s0)
10000600:	00500793          	li	a5,5
10000604:	00e7fe63          	bgeu	a5,a4,10000620 <print_dec+0x384>
10000608:	03600513          	li	a0,54
1000060c:	b71ff0ef          	jal	ra,1000017c <putchar>
10000610:	fec42783          	lw	a5,-20(s0)
10000614:	ffa78793          	addi	a5,a5,-6
10000618:	fef42623          	sw	a5,-20(s0)
1000061c:	0bc0006f          	j	100006d8 <print_dec+0x43c>
10000620:	fec42703          	lw	a4,-20(s0)
10000624:	00400793          	li	a5,4
10000628:	00e7fe63          	bgeu	a5,a4,10000644 <print_dec+0x3a8>
1000062c:	03500513          	li	a0,53
10000630:	b4dff0ef          	jal	ra,1000017c <putchar>
10000634:	fec42783          	lw	a5,-20(s0)
10000638:	ffb78793          	addi	a5,a5,-5
1000063c:	fef42623          	sw	a5,-20(s0)
10000640:	0980006f          	j	100006d8 <print_dec+0x43c>
10000644:	fec42703          	lw	a4,-20(s0)
10000648:	00300793          	li	a5,3
1000064c:	00e7fe63          	bgeu	a5,a4,10000668 <print_dec+0x3cc>
10000650:	03400513          	li	a0,52
10000654:	b29ff0ef          	jal	ra,1000017c <putchar>
10000658:	fec42783          	lw	a5,-20(s0)
1000065c:	ffc78793          	addi	a5,a5,-4
10000660:	fef42623          	sw	a5,-20(s0)
10000664:	0740006f          	j	100006d8 <print_dec+0x43c>
10000668:	fec42703          	lw	a4,-20(s0)
1000066c:	00200793          	li	a5,2
10000670:	00e7fe63          	bgeu	a5,a4,1000068c <print_dec+0x3f0>
10000674:	03300513          	li	a0,51
10000678:	b05ff0ef          	jal	ra,1000017c <putchar>
1000067c:	fec42783          	lw	a5,-20(s0)
10000680:	ffd78793          	addi	a5,a5,-3
10000684:	fef42623          	sw	a5,-20(s0)
10000688:	0500006f          	j	100006d8 <print_dec+0x43c>
1000068c:	fec42703          	lw	a4,-20(s0)
10000690:	00100793          	li	a5,1
10000694:	00e7fe63          	bgeu	a5,a4,100006b0 <print_dec+0x414>
10000698:	03200513          	li	a0,50
1000069c:	ae1ff0ef          	jal	ra,1000017c <putchar>
100006a0:	fec42783          	lw	a5,-20(s0)
100006a4:	ffe78793          	addi	a5,a5,-2
100006a8:	fef42623          	sw	a5,-20(s0)
100006ac:	02c0006f          	j	100006d8 <print_dec+0x43c>
100006b0:	fec42783          	lw	a5,-20(s0)
100006b4:	00078e63          	beqz	a5,100006d0 <print_dec+0x434>
100006b8:	03100513          	li	a0,49
100006bc:	ac1ff0ef          	jal	ra,1000017c <putchar>
100006c0:	fec42783          	lw	a5,-20(s0)
100006c4:	fff78793          	addi	a5,a5,-1
100006c8:	fef42623          	sw	a5,-20(s0)
100006cc:	00c0006f          	j	100006d8 <print_dec+0x43c>
100006d0:	03000513          	li	a0,48
100006d4:	aa9ff0ef          	jal	ra,1000017c <putchar>
100006d8:	01c12083          	lw	ra,28(sp)
100006dc:	01812403          	lw	s0,24(sp)
100006e0:	02010113          	addi	sp,sp,32
100006e4:	00008067          	ret

100006e8 <print_digit>:
100006e8:	fe010113          	addi	sp,sp,-32
100006ec:	00112e23          	sw	ra,28(sp)
100006f0:	00812c23          	sw	s0,24(sp)
100006f4:	02010413          	addi	s0,sp,32
100006f8:	fea42623          	sw	a0,-20(s0)
100006fc:	fec42783          	lw	a5,-20(s0)
10000700:	00f7f793          	andi	a5,a5,15
10000704:	fef42623          	sw	a5,-20(s0)
10000708:	fec42703          	lw	a4,-20(s0)
1000070c:	00900793          	li	a5,9
10000710:	00f71863          	bne	a4,a5,10000720 <print_digit+0x38>
10000714:	03900513          	li	a0,57
10000718:	a65ff0ef          	jal	ra,1000017c <putchar>
1000071c:	1700006f          	j	1000088c <print_digit+0x1a4>
10000720:	fec42703          	lw	a4,-20(s0)
10000724:	00800793          	li	a5,8
10000728:	00f71863          	bne	a4,a5,10000738 <print_digit+0x50>
1000072c:	03800513          	li	a0,56
10000730:	a4dff0ef          	jal	ra,1000017c <putchar>
10000734:	1580006f          	j	1000088c <print_digit+0x1a4>
10000738:	fec42703          	lw	a4,-20(s0)
1000073c:	00700793          	li	a5,7
10000740:	00f71863          	bne	a4,a5,10000750 <print_digit+0x68>
10000744:	03700513          	li	a0,55
10000748:	a35ff0ef          	jal	ra,1000017c <putchar>
1000074c:	1400006f          	j	1000088c <print_digit+0x1a4>
10000750:	fec42703          	lw	a4,-20(s0)
10000754:	00600793          	li	a5,6
10000758:	00f71863          	bne	a4,a5,10000768 <print_digit+0x80>
1000075c:	03600513          	li	a0,54
10000760:	a1dff0ef          	jal	ra,1000017c <putchar>
10000764:	1280006f          	j	1000088c <print_digit+0x1a4>
10000768:	fec42703          	lw	a4,-20(s0)
1000076c:	00500793          	li	a5,5
10000770:	00f71863          	bne	a4,a5,10000780 <print_digit+0x98>
10000774:	03500513          	li	a0,53
10000778:	a05ff0ef          	jal	ra,1000017c <putchar>
1000077c:	1100006f          	j	1000088c <print_digit+0x1a4>
10000780:	fec42703          	lw	a4,-20(s0)
10000784:	00400793          	li	a5,4
10000788:	00f71863          	bne	a4,a5,10000798 <print_digit+0xb0>
1000078c:	03400513          	li	a0,52
10000790:	9edff0ef          	jal	ra,1000017c <putchar>
10000794:	0f80006f          	j	1000088c <print_digit+0x1a4>
10000798:	fec42703          	lw	a4,-20(s0)
1000079c:	00300793          	li	a5,3
100007a0:	00f71863          	bne	a4,a5,100007b0 <print_digit+0xc8>
100007a4:	03300513          	li	a0,51
100007a8:	9d5ff0ef          	jal	ra,1000017c <putchar>
100007ac:	0e00006f          	j	1000088c <print_digit+0x1a4>
100007b0:	fec42703          	lw	a4,-20(s0)
100007b4:	00200793          	li	a5,2
100007b8:	00f71863          	bne	a4,a5,100007c8 <print_digit+0xe0>
100007bc:	03200513          	li	a0,50
100007c0:	9bdff0ef          	jal	ra,1000017c <putchar>
100007c4:	0c80006f          	j	1000088c <print_digit+0x1a4>
100007c8:	fec42703          	lw	a4,-20(s0)
100007cc:	00100793          	li	a5,1
100007d0:	00f71863          	bne	a4,a5,100007e0 <print_digit+0xf8>
100007d4:	03100513          	li	a0,49
100007d8:	9a5ff0ef          	jal	ra,1000017c <putchar>
100007dc:	0b00006f          	j	1000088c <print_digit+0x1a4>
100007e0:	fec42783          	lw	a5,-20(s0)
100007e4:	00079863          	bnez	a5,100007f4 <print_digit+0x10c>
100007e8:	03000513          	li	a0,48
100007ec:	991ff0ef          	jal	ra,1000017c <putchar>
100007f0:	09c0006f          	j	1000088c <print_digit+0x1a4>
100007f4:	fec42703          	lw	a4,-20(s0)
100007f8:	00a00793          	li	a5,10
100007fc:	00f71863          	bne	a4,a5,1000080c <print_digit+0x124>
10000800:	06100513          	li	a0,97
10000804:	979ff0ef          	jal	ra,1000017c <putchar>
10000808:	0840006f          	j	1000088c <print_digit+0x1a4>
1000080c:	fec42703          	lw	a4,-20(s0)
10000810:	00b00793          	li	a5,11
10000814:	00f71863          	bne	a4,a5,10000824 <print_digit+0x13c>
10000818:	06200513          	li	a0,98
1000081c:	961ff0ef          	jal	ra,1000017c <putchar>
10000820:	06c0006f          	j	1000088c <print_digit+0x1a4>
10000824:	fec42703          	lw	a4,-20(s0)
10000828:	00c00793          	li	a5,12
1000082c:	00f71863          	bne	a4,a5,1000083c <print_digit+0x154>
10000830:	06300513          	li	a0,99
10000834:	949ff0ef          	jal	ra,1000017c <putchar>
10000838:	0540006f          	j	1000088c <print_digit+0x1a4>
1000083c:	fec42703          	lw	a4,-20(s0)
10000840:	00d00793          	li	a5,13
10000844:	00f71863          	bne	a4,a5,10000854 <print_digit+0x16c>
10000848:	06400513          	li	a0,100
1000084c:	931ff0ef          	jal	ra,1000017c <putchar>
10000850:	03c0006f          	j	1000088c <print_digit+0x1a4>
10000854:	fec42703          	lw	a4,-20(s0)
10000858:	00e00793          	li	a5,14
1000085c:	00f71863          	bne	a4,a5,1000086c <print_digit+0x184>
10000860:	06500513          	li	a0,101
10000864:	919ff0ef          	jal	ra,1000017c <putchar>
10000868:	0240006f          	j	1000088c <print_digit+0x1a4>
1000086c:	fec42703          	lw	a4,-20(s0)
10000870:	00f00793          	li	a5,15
10000874:	00f71863          	bne	a4,a5,10000884 <print_digit+0x19c>
10000878:	06600513          	li	a0,102
1000087c:	901ff0ef          	jal	ra,1000017c <putchar>
10000880:	00c0006f          	j	1000088c <print_digit+0x1a4>
10000884:	02a00513          	li	a0,42
10000888:	8f5ff0ef          	jal	ra,1000017c <putchar>
1000088c:	00000013          	nop
10000890:	01c12083          	lw	ra,28(sp)
10000894:	01812403          	lw	s0,24(sp)
10000898:	02010113          	addi	sp,sp,32
1000089c:	00008067          	ret

100008a0 <set_gpio>:
100008a0:	fe010113          	addi	sp,sp,-32
100008a4:	00812e23          	sw	s0,28(sp)
100008a8:	02010413          	addi	s0,sp,32
100008ac:	fea42623          	sw	a0,-20(s0)
100008b0:	260007b7          	lui	a5,0x26000
100008b4:	00c78793          	addi	a5,a5,12 # 2600000c <_etext+0x15ffd76c>
100008b8:	0007a683          	lw	a3,0(a5)
100008bc:	fec42703          	lw	a4,-20(s0)
100008c0:	260007b7          	lui	a5,0x26000
100008c4:	00c78793          	addi	a5,a5,12 # 2600000c <_etext+0x15ffd76c>
100008c8:	00e6e733          	or	a4,a3,a4
100008cc:	00e7a023          	sw	a4,0(a5)
100008d0:	00000013          	nop
100008d4:	01c12403          	lw	s0,28(sp)
100008d8:	02010113          	addi	sp,sp,32
100008dc:	00008067          	ret

100008e0 <clear_gpio>:
100008e0:	fe010113          	addi	sp,sp,-32
100008e4:	00812e23          	sw	s0,28(sp)
100008e8:	02010413          	addi	s0,sp,32
100008ec:	fea42623          	sw	a0,-20(s0)
100008f0:	260007b7          	lui	a5,0x26000
100008f4:	00c78793          	addi	a5,a5,12 # 2600000c <_etext+0x15ffd76c>
100008f8:	0007a703          	lw	a4,0(a5)
100008fc:	fec42783          	lw	a5,-20(s0)
10000900:	fff7c793          	not	a5,a5
10000904:	00078693          	mv	a3,a5
10000908:	260007b7          	lui	a5,0x26000
1000090c:	00c78793          	addi	a5,a5,12 # 2600000c <_etext+0x15ffd76c>
10000910:	00d77733          	and	a4,a4,a3
10000914:	00e7a023          	sw	a4,0(a5)
10000918:	00000013          	nop
1000091c:	01c12403          	lw	s0,28(sp)
10000920:	02010113          	addi	sp,sp,32
10000924:	00008067          	ret

10000928 <main>:
10000928:	fd010113          	addi	sp,sp,-48
1000092c:	02112623          	sw	ra,44(sp)
10000930:	02812423          	sw	s0,40(sp)
10000934:	03010413          	addi	s0,sp,48
10000938:	260007b7          	lui	a5,0x26000
1000093c:	0b478793          	addi	a5,a5,180 # 260000b4 <_etext+0x15ffd814>
10000940:	00002737          	lui	a4,0x2
10000944:	80970713          	addi	a4,a4,-2039 # 1809 <_edata-0xffe7f7>
10000948:	00e7a023          	sw	a4,0(a5)
1000094c:	260007b7          	lui	a5,0x26000
10000950:	0b878793          	addi	a5,a5,184 # 260000b8 <_etext+0x15ffd818>
10000954:	00002737          	lui	a4,0x2
10000958:	80970713          	addi	a4,a4,-2039 # 1809 <_edata-0xffe7f7>
1000095c:	00e7a023          	sw	a4,0(a5)
10000960:	260007b7          	lui	a5,0x26000
10000964:	03c78793          	addi	a5,a5,60 # 2600003c <_etext+0x15ffd79c>
10000968:	7ff00713          	li	a4,2047
1000096c:	00e7a023          	sw	a4,0(a5)
10000970:	200007b7          	lui	a5,0x20000
10000974:	41200713          	li	a4,1042
10000978:	00e7a023          	sw	a4,0(a5) # 20000000 <_etext+0xfffd760>
1000097c:	200007b7          	lui	a5,0x20000
10000980:	00878793          	addi	a5,a5,8 # 20000008 <_etext+0xfffd768>
10000984:	00100713          	li	a4,1
10000988:	00e7a023          	sw	a4,0(a5)
1000098c:	260007b7          	lui	a5,0x26000
10000990:	00c78793          	addi	a5,a5,12 # 2600000c <_etext+0x15ffd76c>
10000994:	0007a023          	sw	zero,0(a5)
10000998:	260007b7          	lui	a5,0x26000
1000099c:	01078793          	addi	a5,a5,16 # 26000010 <_etext+0x15ffd770>
100009a0:	0007a023          	sw	zero,0(a5)
100009a4:	260007b7          	lui	a5,0x26000
100009a8:	00100713          	li	a4,1
100009ac:	00e7a023          	sw	a4,0(a5) # 26000000 <_etext+0x15ffd760>
100009b0:	00000013          	nop
100009b4:	260007b7          	lui	a5,0x26000
100009b8:	0007a703          	lw	a4,0(a5) # 26000000 <_etext+0x15ffd760>
100009bc:	00100793          	li	a5,1
100009c0:	fef70ae3          	beq	a4,a5,100009b4 <main+0x8c>
100009c4:	210007b7          	lui	a5,0x21000
100009c8:	00478793          	addi	a5,a5,4 # 21000004 <_etext+0x10ffd764>
100009cc:	0007a023          	sw	zero,0(a5)
100009d0:	210007b7          	lui	a5,0x21000
100009d4:	00878793          	addi	a5,a5,8 # 21000008 <_etext+0x10ffd768>
100009d8:	0007a023          	sw	zero,0(a5)
100009dc:	210007b7          	lui	a5,0x21000
100009e0:	00c78793          	addi	a5,a5,12 # 2100000c <_etext+0x10ffd76c>
100009e4:	0007a023          	sw	zero,0(a5)
100009e8:	210007b7          	lui	a5,0x21000
100009ec:	00100713          	li	a4,1
100009f0:	00e7a023          	sw	a4,0(a5) # 21000000 <_etext+0x10ffd760>
100009f4:	300007b7          	lui	a5,0x30000
100009f8:	01478793          	addi	a5,a5,20 # 30000014 <_etext+0x1fffd774>
100009fc:	00f00713          	li	a4,15
10000a00:	00e7a023          	sw	a4,0(a5)
10000a04:	fe042623          	sw	zero,-20(s0)
10000a08:	00100513          	li	a0,1
10000a0c:	574000ef          	jal	ra,10000f80 <CGRA_load_bs>
10000a10:	fea42623          	sw	a0,-20(s0)
10000a14:	300007b7          	lui	a5,0x30000
10000a18:	20200713          	li	a4,514
10000a1c:	00e7a023          	sw	a4,0(a5) # 30000000 <_etext+0x1fffd760>
10000a20:	300007b7          	lui	a5,0x30000
10000a24:	00478793          	addi	a5,a5,4 # 30000004 <_etext+0x1fffd764>
10000a28:	001c0737          	lui	a4,0x1c0
10000a2c:	00e7a023          	sw	a4,0(a5)
10000a30:	300007b7          	lui	a5,0x30000
10000a34:	00c78793          	addi	a5,a5,12 # 3000000c <_etext+0x1fffd76c>
10000a38:	00100713          	li	a4,1
10000a3c:	00e7a023          	sw	a4,0(a5)
10000a40:	fe042423          	sw	zero,-24(s0)
10000a44:	0680006f          	j	10000aac <main+0x184>
10000a48:	fe842783          	lw	a5,-24(s0)
10000a4c:	0017d793          	srli	a5,a5,0x1
10000a50:	fcf42c23          	sw	a5,-40(s0)
10000a54:	fd842783          	lw	a5,-40(s0)
10000a58:	01879793          	slli	a5,a5,0x18
10000a5c:	fcf42c23          	sw	a5,-40(s0)
10000a60:	fd842703          	lw	a4,-40(s0)
10000a64:	000107b7          	lui	a5,0x10
10000a68:	00178793          	addi	a5,a5,1 # 10001 <_edata-0xfeffff>
10000a6c:	00f767b3          	or	a5,a4,a5
10000a70:	fcf42c23          	sw	a5,-40(s0)
10000a74:	300007b7          	lui	a5,0x30000
10000a78:	fd842703          	lw	a4,-40(s0)
10000a7c:	00e7a023          	sw	a4,0(a5) # 30000000 <_etext+0x1fffd760>
10000a80:	300007b7          	lui	a5,0x30000
10000a84:	00478793          	addi	a5,a5,4 # 30000004 <_etext+0x1fffd764>
10000a88:	09900713          	li	a4,153
10000a8c:	00e7a023          	sw	a4,0(a5)
10000a90:	300007b7          	lui	a5,0x30000
10000a94:	00c78793          	addi	a5,a5,12 # 3000000c <_etext+0x1fffd76c>
10000a98:	00100713          	li	a4,1
10000a9c:	00e7a023          	sw	a4,0(a5)
10000aa0:	fe842783          	lw	a5,-24(s0)
10000aa4:	00178793          	addi	a5,a5,1
10000aa8:	fef42423          	sw	a5,-24(s0)
10000aac:	fe842703          	lw	a4,-24(s0)
10000ab0:	1ff00793          	li	a5,511
10000ab4:	f8e7fae3          	bgeu	a5,a4,10000a48 <main+0x120>
10000ab8:	300007b7          	lui	a5,0x30000
10000abc:	01478793          	addi	a5,a5,20 # 30000014 <_etext+0x1fffd774>
10000ac0:	0007a023          	sw	zero,0(a5)
10000ac4:	300007b7          	lui	a5,0x30000
10000ac8:	20200713          	li	a4,514
10000acc:	00e7a023          	sw	a4,0(a5) # 30000000 <_etext+0x1fffd760>
10000ad0:	300007b7          	lui	a5,0x30000
10000ad4:	00478793          	addi	a5,a5,4 # 30000004 <_etext+0x1fffd764>
10000ad8:	001c8737          	lui	a4,0x1c8
10000adc:	e0070713          	addi	a4,a4,-512 # 1c7e00 <_edata-0xe38200>
10000ae0:	00e7a023          	sw	a4,0(a5)
10000ae4:	300007b7          	lui	a5,0x30000
10000ae8:	00c78793          	addi	a5,a5,12 # 3000000c <_etext+0x1fffd76c>
10000aec:	00100713          	li	a4,1
10000af0:	00e7a023          	sw	a4,0(a5)
10000af4:	300007b7          	lui	a5,0x30000
10000af8:	20200713          	li	a4,514
10000afc:	00e7a023          	sw	a4,0(a5) # 30000000 <_etext+0x1fffd760>
10000b00:	300007b7          	lui	a5,0x30000
10000b04:	00478793          	addi	a5,a5,4 # 30000004 <_etext+0x1fffd764>
10000b08:	001c0737          	lui	a4,0x1c0
10000b0c:	00e7a023          	sw	a4,0(a5)
10000b10:	300007b7          	lui	a5,0x30000
10000b14:	00c78793          	addi	a5,a5,12 # 3000000c <_etext+0x1fffd76c>
10000b18:	00100713          	li	a4,1
10000b1c:	00e7a023          	sw	a4,0(a5)
10000b20:	fe042423          	sw	zero,-24(s0)
10000b24:	0100006f          	j	10000b34 <main+0x20c>
10000b28:	fe842783          	lw	a5,-24(s0)
10000b2c:	00178793          	addi	a5,a5,1
10000b30:	fef42423          	sw	a5,-24(s0)
10000b34:	fe842703          	lw	a4,-24(s0)
10000b38:	000017b7          	lui	a5,0x1
10000b3c:	bb778793          	addi	a5,a5,-1097 # bb7 <_edata-0xfff449>
10000b40:	fee7f4e3          	bgeu	a5,a4,10000b28 <main+0x200>
10000b44:	300007b7          	lui	a5,0x30000
10000b48:	01478793          	addi	a5,a5,20 # 30000014 <_etext+0x1fffd774>
10000b4c:	00f00713          	li	a4,15
10000b50:	00e7a023          	sw	a4,0(a5)
10000b54:	fc042e23          	sw	zero,-36(s0)
10000b58:	fe042423          	sw	zero,-24(s0)
10000b5c:	0a80006f          	j	10000c04 <main+0x2dc>
10000b60:	fe842783          	lw	a5,-24(s0)
10000b64:	01879793          	slli	a5,a5,0x18
10000b68:	fcf42c23          	sw	a5,-40(s0)
10000b6c:	fd842703          	lw	a4,-40(s0)
10000b70:	000107b7          	lui	a5,0x10
10000b74:	10178793          	addi	a5,a5,257 # 10101 <_edata-0xfefeff>
10000b78:	00f767b3          	or	a5,a4,a5
10000b7c:	fcf42c23          	sw	a5,-40(s0)
10000b80:	300007b7          	lui	a5,0x30000
10000b84:	fd842703          	lw	a4,-40(s0)
10000b88:	00e7a023          	sw	a4,0(a5) # 30000000 <_etext+0x1fffd760>
10000b8c:	300007b7          	lui	a5,0x30000
10000b90:	01078793          	addi	a5,a5,16 # 30000010 <_etext+0x1fffd770>
10000b94:	00100713          	li	a4,1
10000b98:	00e7a023          	sw	a4,0(a5)
10000b9c:	fe042023          	sw	zero,-32(s0)
10000ba0:	0100006f          	j	10000bb0 <main+0x288>
10000ba4:	fe042783          	lw	a5,-32(s0)
10000ba8:	00178793          	addi	a5,a5,1
10000bac:	fef42023          	sw	a5,-32(s0)
10000bb0:	fe042703          	lw	a4,-32(s0)
10000bb4:	03100793          	li	a5,49
10000bb8:	fee7f6e3          	bgeu	a5,a4,10000ba4 <main+0x27c>
10000bbc:	300007b7          	lui	a5,0x30000
10000bc0:	00878793          	addi	a5,a5,8 # 30000008 <_etext+0x1fffd768>
10000bc4:	0007a783          	lw	a5,0(a5)
10000bc8:	fef42223          	sw	a5,-28(s0)
10000bcc:	300007b7          	lui	a5,0x30000
10000bd0:	01078793          	addi	a5,a5,16 # 30000010 <_etext+0x1fffd770>
10000bd4:	0007a023          	sw	zero,0(a5)
10000bd8:	fe442703          	lw	a4,-28(s0)
10000bdc:	09900793          	li	a5,153
10000be0:	00f70c63          	beq	a4,a5,10000bf8 <main+0x2d0>
10000be4:	00100793          	li	a5,1
10000be8:	fef42623          	sw	a5,-20(s0)
10000bec:	fdc42783          	lw	a5,-36(s0)
10000bf0:	00178793          	addi	a5,a5,1
10000bf4:	fcf42e23          	sw	a5,-36(s0)
10000bf8:	fe842783          	lw	a5,-24(s0)
10000bfc:	00178793          	addi	a5,a5,1
10000c00:	fef42423          	sw	a5,-24(s0)
10000c04:	fe842703          	lw	a4,-24(s0)
10000c08:	0ff00793          	li	a5,255
10000c0c:	f4e7fae3          	bgeu	a5,a4,10000b60 <main+0x238>
10000c10:	fec42783          	lw	a5,-20(s0)
10000c14:	00079863          	bnez	a5,10000c24 <main+0x2fc>
10000c18:	fe442503          	lw	a0,-28(s0)
10000c1c:	024000ef          	jal	ra,10000c40 <led_signal_pass>
10000c20:	00c0006f          	j	10000c2c <main+0x304>
10000c24:	fdc42503          	lw	a0,-36(s0)
10000c28:	1ac000ef          	jal	ra,10000dd4 <led_signal_fail>
10000c2c:	00000013          	nop
10000c30:	02c12083          	lw	ra,44(sp)
10000c34:	02812403          	lw	s0,40(sp)
10000c38:	03010113          	addi	sp,sp,48
10000c3c:	00008067          	ret

10000c40 <led_signal_pass>:
10000c40:	fc010113          	addi	sp,sp,-64
10000c44:	02112e23          	sw	ra,60(sp)
10000c48:	02812c23          	sw	s0,56(sp)
10000c4c:	04010413          	addi	s0,sp,64
10000c50:	fca42623          	sw	a0,-52(s0)
10000c54:	100037b7          	lui	a5,0x10003
10000c58:	86c78793          	addi	a5,a5,-1940 # 1000286c <CGRA_load_bs+0x18ec>
10000c5c:	fcf42e23          	sw	a5,-36(s0)
10000c60:	100037b7          	lui	a5,0x10003
10000c64:	88478793          	addi	a5,a5,-1916 # 10002884 <CGRA_load_bs+0x1904>
10000c68:	fef42023          	sw	a5,-32(s0)
10000c6c:	100037b7          	lui	a5,0x10003
10000c70:	89c78793          	addi	a5,a5,-1892 # 1000289c <CGRA_load_bs+0x191c>
10000c74:	00078513          	mv	a0,a5
10000c78:	d04ff0ef          	jal	ra,1000017c <putchar>
10000c7c:	08000513          	li	a0,128
10000c80:	cfcff0ef          	jal	ra,1000017c <putchar>
10000c84:	100037b7          	lui	a5,0x10003
10000c88:	89c78793          	addi	a5,a5,-1892 # 1000289c <CGRA_load_bs+0x191c>
10000c8c:	00078513          	mv	a0,a5
10000c90:	cecff0ef          	jal	ra,1000017c <putchar>
10000c94:	09e00513          	li	a0,158
10000c98:	ce4ff0ef          	jal	ra,1000017c <putchar>
10000c9c:	100037b7          	lui	a5,0x10003
10000ca0:	89c78793          	addi	a5,a5,-1892 # 1000289c <CGRA_load_bs+0x191c>
10000ca4:	00078513          	mv	a0,a5
10000ca8:	cd4ff0ef          	jal	ra,1000017c <putchar>
10000cac:	0bc00513          	li	a0,188
10000cb0:	cccff0ef          	jal	ra,1000017c <putchar>
10000cb4:	00500793          	li	a5,5
10000cb8:	fef42223          	sw	a5,-28(s0)
10000cbc:	100037b7          	lui	a5,0x10003
10000cc0:	89c78513          	addi	a0,a5,-1892 # 1000289c <CGRA_load_bs+0x191c>
10000cc4:	d04ff0ef          	jal	ra,100001c8 <print>
10000cc8:	02d00513          	li	a0,45
10000ccc:	cb0ff0ef          	jal	ra,1000017c <putchar>
10000cd0:	00400593          	li	a1,4
10000cd4:	fcc42503          	lw	a0,-52(s0)
10000cd8:	d40ff0ef          	jal	ra,10000218 <print_hex>
10000cdc:	fe042423          	sw	zero,-24(s0)
10000ce0:	0100006f          	j	10000cf0 <led_signal_pass+0xb0>
10000ce4:	fe842783          	lw	a5,-24(s0)
10000ce8:	00178793          	addi	a5,a5,1
10000cec:	fef42423          	sw	a5,-24(s0)
10000cf0:	fe842703          	lw	a4,-24(s0)
10000cf4:	000077b7          	lui	a5,0x7
10000cf8:	52f78793          	addi	a5,a5,1327 # 752f <_edata-0xff8ad1>
10000cfc:	fee7d4e3          	bge	a5,a4,10000ce4 <led_signal_pass+0xa4>
10000d00:	210007b7          	lui	a5,0x21000
10000d04:	0007a023          	sw	zero,0(a5) # 21000000 <_etext+0x10ffd760>
10000d08:	fe042423          	sw	zero,-24(s0)
10000d0c:	0100006f          	j	10000d1c <led_signal_pass+0xdc>
10000d10:	fe842783          	lw	a5,-24(s0)
10000d14:	00178793          	addi	a5,a5,1
10000d18:	fef42423          	sw	a5,-24(s0)
10000d1c:	fe842703          	lw	a4,-24(s0)
10000d20:	000027b7          	lui	a5,0x2
10000d24:	70f78793          	addi	a5,a5,1807 # 270f <_edata-0xffd8f1>
10000d28:	fee7d4e3          	bge	a5,a4,10000d10 <led_signal_pass+0xd0>
10000d2c:	210007b7          	lui	a5,0x21000
10000d30:	00100713          	li	a4,1
10000d34:	00e7a023          	sw	a4,0(a5) # 21000000 <_etext+0x10ffd760>
10000d38:	fe042423          	sw	zero,-24(s0)
10000d3c:	0100006f          	j	10000d4c <led_signal_pass+0x10c>
10000d40:	fe842783          	lw	a5,-24(s0)
10000d44:	00178793          	addi	a5,a5,1
10000d48:	fef42423          	sw	a5,-24(s0)
10000d4c:	fe842703          	lw	a4,-24(s0)
10000d50:	000027b7          	lui	a5,0x2
10000d54:	70f78793          	addi	a5,a5,1807 # 270f <_edata-0xffd8f1>
10000d58:	fee7d4e3          	bge	a5,a4,10000d40 <led_signal_pass+0x100>
10000d5c:	fe042623          	sw	zero,-20(s0)
10000d60:	0640006f          	j	10000dc4 <led_signal_pass+0x184>
10000d64:	210007b7          	lui	a5,0x21000
10000d68:	0007a023          	sw	zero,0(a5) # 21000000 <_etext+0x10ffd760>
10000d6c:	fe042423          	sw	zero,-24(s0)
10000d70:	0100006f          	j	10000d80 <led_signal_pass+0x140>
10000d74:	fe842783          	lw	a5,-24(s0)
10000d78:	00178793          	addi	a5,a5,1
10000d7c:	fef42423          	sw	a5,-24(s0)
10000d80:	fe842703          	lw	a4,-24(s0)
10000d84:	3e700793          	li	a5,999
10000d88:	fee7d6e3          	bge	a5,a4,10000d74 <led_signal_pass+0x134>
10000d8c:	210007b7          	lui	a5,0x21000
10000d90:	00100713          	li	a4,1
10000d94:	00e7a023          	sw	a4,0(a5) # 21000000 <_etext+0x10ffd760>
10000d98:	fe042423          	sw	zero,-24(s0)
10000d9c:	0100006f          	j	10000dac <led_signal_pass+0x16c>
10000da0:	fe842783          	lw	a5,-24(s0)
10000da4:	00178793          	addi	a5,a5,1
10000da8:	fef42423          	sw	a5,-24(s0)
10000dac:	fe842703          	lw	a4,-24(s0)
10000db0:	3e700793          	li	a5,999
10000db4:	fee7d6e3          	bge	a5,a4,10000da0 <led_signal_pass+0x160>
10000db8:	fec42783          	lw	a5,-20(s0)
10000dbc:	00178793          	addi	a5,a5,1
10000dc0:	fef42623          	sw	a5,-20(s0)
10000dc4:	fec42703          	lw	a4,-20(s0)
10000dc8:	fe442783          	lw	a5,-28(s0)
10000dcc:	f8f74ce3          	blt	a4,a5,10000d64 <led_signal_pass+0x124>
10000dd0:	eedff06f          	j	10000cbc <led_signal_pass+0x7c>

10000dd4 <led_signal_fail>:
10000dd4:	fd010113          	addi	sp,sp,-48
10000dd8:	02112623          	sw	ra,44(sp)
10000ddc:	02812423          	sw	s0,40(sp)
10000de0:	03010413          	addi	s0,sp,48
10000de4:	fca42e23          	sw	a0,-36(s0)
10000de8:	100037b7          	lui	a5,0x10003
10000dec:	89c78793          	addi	a5,a5,-1892 # 1000289c <CGRA_load_bs+0x191c>
10000df0:	00078513          	mv	a0,a5
10000df4:	b88ff0ef          	jal	ra,1000017c <putchar>
10000df8:	08000513          	li	a0,128
10000dfc:	b80ff0ef          	jal	ra,1000017c <putchar>
10000e00:	100037b7          	lui	a5,0x10003
10000e04:	89c78793          	addi	a5,a5,-1892 # 1000289c <CGRA_load_bs+0x191c>
10000e08:	00078513          	mv	a0,a5
10000e0c:	b70ff0ef          	jal	ra,1000017c <putchar>
10000e10:	09e00513          	li	a0,158
10000e14:	b68ff0ef          	jal	ra,1000017c <putchar>
10000e18:	100037b7          	lui	a5,0x10003
10000e1c:	89c78793          	addi	a5,a5,-1892 # 1000289c <CGRA_load_bs+0x191c>
10000e20:	00078513          	mv	a0,a5
10000e24:	b58ff0ef          	jal	ra,1000017c <putchar>
10000e28:	0bc00513          	li	a0,188
10000e2c:	b50ff0ef          	jal	ra,1000017c <putchar>
10000e30:	100037b7          	lui	a5,0x10003
10000e34:	89c78513          	addi	a0,a5,-1892 # 1000289c <CGRA_load_bs+0x191c>
10000e38:	b90ff0ef          	jal	ra,100001c8 <print>
10000e3c:	02d00513          	li	a0,45
10000e40:	b3cff0ef          	jal	ra,1000017c <putchar>
10000e44:	00400593          	li	a1,4
10000e48:	fdc42503          	lw	a0,-36(s0)
10000e4c:	bccff0ef          	jal	ra,10000218 <print_hex>
10000e50:	fe042623          	sw	zero,-20(s0)
10000e54:	0640006f          	j	10000eb8 <led_signal_fail+0xe4>
10000e58:	210007b7          	lui	a5,0x21000
10000e5c:	0007a023          	sw	zero,0(a5) # 21000000 <_etext+0x10ffd760>
10000e60:	fe042423          	sw	zero,-24(s0)
10000e64:	0100006f          	j	10000e74 <led_signal_fail+0xa0>
10000e68:	fe842783          	lw	a5,-24(s0)
10000e6c:	00178793          	addi	a5,a5,1
10000e70:	fef42423          	sw	a5,-24(s0)
10000e74:	fe842703          	lw	a4,-24(s0)
10000e78:	7cf00793          	li	a5,1999
10000e7c:	fee7d6e3          	bge	a5,a4,10000e68 <led_signal_fail+0x94>
10000e80:	210007b7          	lui	a5,0x21000
10000e84:	00100713          	li	a4,1
10000e88:	00e7a023          	sw	a4,0(a5) # 21000000 <_etext+0x10ffd760>
10000e8c:	fe042423          	sw	zero,-24(s0)
10000e90:	0100006f          	j	10000ea0 <led_signal_fail+0xcc>
10000e94:	fe842783          	lw	a5,-24(s0)
10000e98:	00178793          	addi	a5,a5,1
10000e9c:	fef42423          	sw	a5,-24(s0)
10000ea0:	fe842703          	lw	a4,-24(s0)
10000ea4:	7cf00793          	li	a5,1999
10000ea8:	fee7d6e3          	bge	a5,a4,10000e94 <led_signal_fail+0xc0>
10000eac:	fec42783          	lw	a5,-20(s0)
10000eb0:	00178793          	addi	a5,a5,1
10000eb4:	fef42623          	sw	a5,-20(s0)
10000eb8:	fec42703          	lw	a4,-20(s0)
10000ebc:	00e00793          	li	a5,14
10000ec0:	f8e7dce3          	bge	a5,a4,10000e58 <led_signal_fail+0x84>
10000ec4:	f6dff06f          	j	10000e30 <led_signal_fail+0x5c>

10000ec8 <uart_message>:
10000ec8:	fd010113          	addi	sp,sp,-48
10000ecc:	02112623          	sw	ra,44(sp)
10000ed0:	02812423          	sw	s0,40(sp)
10000ed4:	03010413          	addi	s0,sp,48
10000ed8:	fca42e23          	sw	a0,-36(s0)
10000edc:	100037b7          	lui	a5,0x10003
10000ee0:	86c78793          	addi	a5,a5,-1940 # 1000286c <CGRA_load_bs+0x18ec>
10000ee4:	fef42423          	sw	a5,-24(s0)
10000ee8:	100037b7          	lui	a5,0x10003
10000eec:	88478793          	addi	a5,a5,-1916 # 10002884 <CGRA_load_bs+0x1904>
10000ef0:	fef42623          	sw	a5,-20(s0)
10000ef4:	100037b7          	lui	a5,0x10003
10000ef8:	89c78793          	addi	a5,a5,-1892 # 1000289c <CGRA_load_bs+0x191c>
10000efc:	00078513          	mv	a0,a5
10000f00:	a7cff0ef          	jal	ra,1000017c <putchar>
10000f04:	08000513          	li	a0,128
10000f08:	a74ff0ef          	jal	ra,1000017c <putchar>
10000f0c:	100037b7          	lui	a5,0x10003
10000f10:	89c78793          	addi	a5,a5,-1892 # 1000289c <CGRA_load_bs+0x191c>
10000f14:	00078513          	mv	a0,a5
10000f18:	a64ff0ef          	jal	ra,1000017c <putchar>
10000f1c:	09e00513          	li	a0,158
10000f20:	a5cff0ef          	jal	ra,1000017c <putchar>
10000f24:	100037b7          	lui	a5,0x10003
10000f28:	89c78793          	addi	a5,a5,-1892 # 1000289c <CGRA_load_bs+0x191c>
10000f2c:	00078513          	mv	a0,a5
10000f30:	a4cff0ef          	jal	ra,1000017c <putchar>
10000f34:	0bc00513          	li	a0,188
10000f38:	a44ff0ef          	jal	ra,1000017c <putchar>
10000f3c:	100037b7          	lui	a5,0x10003
10000f40:	89c78513          	addi	a0,a5,-1892 # 1000289c <CGRA_load_bs+0x191c>
10000f44:	a84ff0ef          	jal	ra,100001c8 <print>
10000f48:	02d00513          	li	a0,45
10000f4c:	a30ff0ef          	jal	ra,1000017c <putchar>
10000f50:	fdc42783          	lw	a5,-36(s0)
10000f54:	00279793          	slli	a5,a5,0x2
10000f58:	ff040713          	addi	a4,s0,-16
10000f5c:	00f707b3          	add	a5,a4,a5
10000f60:	ff87a783          	lw	a5,-8(a5)
10000f64:	00078513          	mv	a0,a5
10000f68:	a60ff0ef          	jal	ra,100001c8 <print>
10000f6c:	00000013          	nop
10000f70:	02c12083          	lw	ra,44(sp)
10000f74:	02812403          	lw	s0,40(sp)
10000f78:	03010113          	addi	sp,sp,48
10000f7c:	00008067          	ret

10000f80 <CGRA_load_bs>:
10000f80:	fd010113          	addi	sp,sp,-48
10000f84:	02812623          	sw	s0,44(sp)
10000f88:	03010413          	addi	s0,sp,48
10000f8c:	fca42e23          	sw	a0,-36(s0)
10000f90:	300007b7          	lui	a5,0x30000
10000f94:	01090737          	lui	a4,0x1090
10000f98:	10170713          	addi	a4,a4,257 # 1090101 <_edata+0x90101>
10000f9c:	00e7a023          	sw	a4,0(a5) # 30000000 <_etext+0x1fffd760>
10000fa0:	300007b7          	lui	a5,0x30000
10000fa4:	00478793          	addi	a5,a5,4 # 30000004 <_etext+0x1fffd764>
10000fa8:	01000713          	li	a4,16
10000fac:	00e7a023          	sw	a4,0(a5)
10000fb0:	300007b7          	lui	a5,0x30000
10000fb4:	00c78793          	addi	a5,a5,12 # 3000000c <_etext+0x1fffd76c>
10000fb8:	00100713          	li	a4,1
10000fbc:	00e7a023          	sw	a4,0(a5)
10000fc0:	300007b7          	lui	a5,0x30000
10000fc4:	00090737          	lui	a4,0x90
10000fc8:	10170713          	addi	a4,a4,257 # 90101 <_edata-0xf6feff>
10000fcc:	00e7a023          	sw	a4,0(a5) # 30000000 <_etext+0x1fffd760>
10000fd0:	300007b7          	lui	a5,0x30000
10000fd4:	00478793          	addi	a5,a5,4 # 30000004 <_etext+0x1fffd764>
10000fd8:	00050737          	lui	a4,0x50
10000fdc:	00e7a023          	sw	a4,0(a5)
10000fe0:	300007b7          	lui	a5,0x30000
10000fe4:	00c78793          	addi	a5,a5,12 # 3000000c <_etext+0x1fffd76c>
10000fe8:	00100713          	li	a4,1
10000fec:	00e7a023          	sw	a4,0(a5)
10000ff0:	300007b7          	lui	a5,0x30000
10000ff4:	00020737          	lui	a4,0x20
10000ff8:	00170713          	addi	a4,a4,1 # 20001 <_edata-0xfdffff>
10000ffc:	00e7a023          	sw	a4,0(a5) # 30000000 <_etext+0x1fffd760>
10001000:	300007b7          	lui	a5,0x30000
10001004:	00478793          	addi	a5,a5,4 # 30000004 <_etext+0x1fffd764>
10001008:	00600713          	li	a4,6
1000100c:	00e7a023          	sw	a4,0(a5)
10001010:	300007b7          	lui	a5,0x30000
10001014:	00c78793          	addi	a5,a5,12 # 3000000c <_etext+0x1fffd76c>
10001018:	00100713          	li	a4,1
1000101c:	00e7a023          	sw	a4,0(a5)
10001020:	300007b7          	lui	a5,0x30000
10001024:	01090737          	lui	a4,0x1090
10001028:	20170713          	addi	a4,a4,513 # 1090201 <_edata+0x90201>
1000102c:	00e7a023          	sw	a4,0(a5) # 30000000 <_etext+0x1fffd760>
10001030:	300007b7          	lui	a5,0x30000
10001034:	00478793          	addi	a5,a5,4 # 30000004 <_etext+0x1fffd764>
10001038:	00005737          	lui	a4,0x5
1000103c:	00870713          	addi	a4,a4,8 # 5008 <_edata-0xffaff8>
10001040:	00e7a023          	sw	a4,0(a5)
10001044:	300007b7          	lui	a5,0x30000
10001048:	00c78793          	addi	a5,a5,12 # 3000000c <_etext+0x1fffd76c>
1000104c:	00100713          	li	a4,1
10001050:	00e7a023          	sw	a4,0(a5)
10001054:	300007b7          	lui	a5,0x30000
10001058:	00020737          	lui	a4,0x20
1000105c:	10170713          	addi	a4,a4,257 # 20101 <_edata-0xfdfeff>
10001060:	00e7a023          	sw	a4,0(a5) # 30000000 <_etext+0x1fffd760>
10001064:	300007b7          	lui	a5,0x30000
10001068:	00478793          	addi	a5,a5,4 # 30000004 <_etext+0x1fffd764>
1000106c:	00600713          	li	a4,6
10001070:	00e7a023          	sw	a4,0(a5)
10001074:	300007b7          	lui	a5,0x30000
10001078:	00c78793          	addi	a5,a5,12 # 3000000c <_etext+0x1fffd76c>
1000107c:	00100713          	li	a4,1
10001080:	00e7a023          	sw	a4,0(a5)
10001084:	300007b7          	lui	a5,0x30000
10001088:	00060737          	lui	a4,0x60
1000108c:	20270713          	addi	a4,a4,514 # 60202 <_edata-0xf9fdfe>
10001090:	00e7a023          	sw	a4,0(a5) # 30000000 <_etext+0x1fffd760>
10001094:	300007b7          	lui	a5,0x30000
10001098:	00478793          	addi	a5,a5,4 # 30000004 <_etext+0x1fffd764>
1000109c:	0000c737          	lui	a4,0xc
100010a0:	00e7a023          	sw	a4,0(a5)
100010a4:	300007b7          	lui	a5,0x30000
100010a8:	00c78793          	addi	a5,a5,12 # 3000000c <_etext+0x1fffd76c>
100010ac:	00100713          	li	a4,1
100010b0:	00e7a023          	sw	a4,0(a5)
100010b4:	300007b7          	lui	a5,0x30000
100010b8:	00020737          	lui	a4,0x20
100010bc:	20170713          	addi	a4,a4,513 # 20201 <_edata-0xfdfdff>
100010c0:	00e7a023          	sw	a4,0(a5) # 30000000 <_etext+0x1fffd760>
100010c4:	300007b7          	lui	a5,0x30000
100010c8:	00478793          	addi	a5,a5,4 # 30000004 <_etext+0x1fffd764>
100010cc:	00100713          	li	a4,1
100010d0:	00e7a023          	sw	a4,0(a5)
100010d4:	300007b7          	lui	a5,0x30000
100010d8:	00c78793          	addi	a5,a5,12 # 3000000c <_etext+0x1fffd76c>
100010dc:	00100713          	li	a4,1
100010e0:	00e7a023          	sw	a4,0(a5)
100010e4:	300007b7          	lui	a5,0x30000
100010e8:	00060737          	lui	a4,0x60
100010ec:	10270713          	addi	a4,a4,258 # 60102 <_edata-0xf9fefe>
100010f0:	00e7a023          	sw	a4,0(a5) # 30000000 <_etext+0x1fffd760>
100010f4:	300007b7          	lui	a5,0x30000
100010f8:	00478793          	addi	a5,a5,4 # 30000004 <_etext+0x1fffd764>
100010fc:	00014737          	lui	a4,0x14
10001100:	00e7a023          	sw	a4,0(a5)
10001104:	300007b7          	lui	a5,0x30000
10001108:	00c78793          	addi	a5,a5,12 # 3000000c <_etext+0x1fffd76c>
1000110c:	00100713          	li	a4,1
10001110:	00e7a023          	sw	a4,0(a5)
10001114:	300007b7          	lui	a5,0x30000
10001118:	000a0737          	lui	a4,0xa0
1000111c:	00170713          	addi	a4,a4,1 # a0001 <_edata-0xf5ffff>
10001120:	00e7a023          	sw	a4,0(a5) # 30000000 <_etext+0x1fffd760>
10001124:	300007b7          	lui	a5,0x30000
10001128:	00478793          	addi	a5,a5,4 # 30000004 <_etext+0x1fffd764>
1000112c:	03240737          	lui	a4,0x3240
10001130:	00e7a023          	sw	a4,0(a5)
10001134:	300007b7          	lui	a5,0x30000
10001138:	00c78793          	addi	a5,a5,12 # 3000000c <_etext+0x1fffd76c>
1000113c:	00100713          	li	a4,1
10001140:	00e7a023          	sw	a4,0(a5)
10001144:	300007b7          	lui	a5,0x30000
10001148:	010a0737          	lui	a4,0x10a0
1000114c:	00170713          	addi	a4,a4,1 # 10a0001 <_edata+0xa0001>
10001150:	00e7a023          	sw	a4,0(a5) # 30000000 <_etext+0x1fffd760>
10001154:	300007b7          	lui	a5,0x30000
10001158:	00478793          	addi	a5,a5,4 # 30000004 <_etext+0x1fffd764>
1000115c:	00003737          	lui	a4,0x3
10001160:	00e7a023          	sw	a4,0(a5)
10001164:	300007b7          	lui	a5,0x30000
10001168:	00c78793          	addi	a5,a5,12 # 3000000c <_etext+0x1fffd76c>
1000116c:	00100713          	li	a4,1
10001170:	00e7a023          	sw	a4,0(a5)
10001174:	300007b7          	lui	a5,0x30000
10001178:	00040737          	lui	a4,0x40
1000117c:	00270713          	addi	a4,a4,2 # 40002 <_edata-0xfbfffe>
10001180:	00e7a023          	sw	a4,0(a5) # 30000000 <_etext+0x1fffd760>
10001184:	300007b7          	lui	a5,0x30000
10001188:	00478793          	addi	a5,a5,4 # 30000004 <_etext+0x1fffd764>
1000118c:	00800713          	li	a4,8
10001190:	00e7a023          	sw	a4,0(a5)
10001194:	300007b7          	lui	a5,0x30000
10001198:	00c78793          	addi	a5,a5,12 # 3000000c <_etext+0x1fffd76c>
1000119c:	00100713          	li	a4,1
100011a0:	00e7a023          	sw	a4,0(a5)
100011a4:	300007b7          	lui	a5,0x30000
100011a8:	00050737          	lui	a4,0x50
100011ac:	10170713          	addi	a4,a4,257 # 50101 <_edata-0xfafeff>
100011b0:	00e7a023          	sw	a4,0(a5) # 30000000 <_etext+0x1fffd760>
100011b4:	300007b7          	lui	a5,0x30000
100011b8:	00478793          	addi	a5,a5,4 # 30000004 <_etext+0x1fffd764>
100011bc:	00700713          	li	a4,7
100011c0:	00e7a023          	sw	a4,0(a5)
100011c4:	300007b7          	lui	a5,0x30000
100011c8:	00c78793          	addi	a5,a5,12 # 3000000c <_etext+0x1fffd76c>
100011cc:	00100713          	li	a4,1
100011d0:	00e7a023          	sw	a4,0(a5)
100011d4:	300007b7          	lui	a5,0x30000
100011d8:	00070737          	lui	a4,0x70
100011dc:	10270713          	addi	a4,a4,258 # 70102 <_edata-0xf8fefe>
100011e0:	00e7a023          	sw	a4,0(a5) # 30000000 <_etext+0x1fffd760>
100011e4:	300007b7          	lui	a5,0x30000
100011e8:	00478793          	addi	a5,a5,4 # 30000004 <_etext+0x1fffd764>
100011ec:	4014c737          	lui	a4,0x4014c
100011f0:	00e7a023          	sw	a4,0(a5)
100011f4:	300007b7          	lui	a5,0x30000
100011f8:	00c78793          	addi	a5,a5,12 # 3000000c <_etext+0x1fffd76c>
100011fc:	00100713          	li	a4,1
10001200:	00e7a023          	sw	a4,0(a5)
10001204:	300007b7          	lui	a5,0x30000
10001208:	000a0737          	lui	a4,0xa0
1000120c:	10170713          	addi	a4,a4,257 # a0101 <_edata-0xf5feff>
10001210:	00e7a023          	sw	a4,0(a5) # 30000000 <_etext+0x1fffd760>
10001214:	300007b7          	lui	a5,0x30000
10001218:	00478793          	addi	a5,a5,4 # 30000004 <_etext+0x1fffd764>
1000121c:	000d0737          	lui	a4,0xd0
10001220:	00e7a023          	sw	a4,0(a5)
10001224:	300007b7          	lui	a5,0x30000
10001228:	00c78793          	addi	a5,a5,12 # 3000000c <_etext+0x1fffd76c>
1000122c:	00100713          	li	a4,1
10001230:	00e7a023          	sw	a4,0(a5)
10001234:	300007b7          	lui	a5,0x30000
10001238:	00070737          	lui	a4,0x70
1000123c:	00270713          	addi	a4,a4,2 # 70002 <_edata-0xf8fffe>
10001240:	00e7a023          	sw	a4,0(a5) # 30000000 <_etext+0x1fffd760>
10001244:	300007b7          	lui	a5,0x30000
10001248:	00478793          	addi	a5,a5,4 # 30000004 <_etext+0x1fffd764>
1000124c:	04340737          	lui	a4,0x4340
10001250:	00e7a023          	sw	a4,0(a5)
10001254:	300007b7          	lui	a5,0x30000
10001258:	00c78793          	addi	a5,a5,12 # 3000000c <_etext+0x1fffd76c>
1000125c:	00100713          	li	a4,1
10001260:	00e7a023          	sw	a4,0(a5)
10001264:	300007b7          	lui	a5,0x30000
10001268:	00050737          	lui	a4,0x50
1000126c:	10270713          	addi	a4,a4,258 # 50102 <_edata-0xfafefe>
10001270:	00e7a023          	sw	a4,0(a5) # 30000000 <_etext+0x1fffd760>
10001274:	300007b7          	lui	a5,0x30000
10001278:	00478793          	addi	a5,a5,4 # 30000004 <_etext+0x1fffd764>
1000127c:	00700713          	li	a4,7
10001280:	00e7a023          	sw	a4,0(a5)
10001284:	300007b7          	lui	a5,0x30000
10001288:	00c78793          	addi	a5,a5,12 # 3000000c <_etext+0x1fffd76c>
1000128c:	00100713          	li	a4,1
10001290:	00e7a023          	sw	a4,0(a5)
10001294:	300007b7          	lui	a5,0x30000
10001298:	00090737          	lui	a4,0x90
1000129c:	00170713          	addi	a4,a4,1 # 90001 <_edata-0xf6ffff>
100012a0:	00e7a023          	sw	a4,0(a5) # 30000000 <_etext+0x1fffd760>
100012a4:	300007b7          	lui	a5,0x30000
100012a8:	00478793          	addi	a5,a5,4 # 30000004 <_etext+0x1fffd764>
100012ac:	00040737          	lui	a4,0x40
100012b0:	00e7a023          	sw	a4,0(a5)
100012b4:	300007b7          	lui	a5,0x30000
100012b8:	00c78793          	addi	a5,a5,12 # 3000000c <_etext+0x1fffd76c>
100012bc:	00100713          	li	a4,1
100012c0:	00e7a023          	sw	a4,0(a5)
100012c4:	300007b7          	lui	a5,0x30000
100012c8:	010a0737          	lui	a4,0x10a0
100012cc:	10170713          	addi	a4,a4,257 # 10a0101 <_edata+0xa0101>
100012d0:	00e7a023          	sw	a4,0(a5) # 30000000 <_etext+0x1fffd760>
100012d4:	300007b7          	lui	a5,0x30000
100012d8:	00478793          	addi	a5,a5,4 # 30000004 <_etext+0x1fffd764>
100012dc:	20000713          	li	a4,512
100012e0:	00e7a023          	sw	a4,0(a5)
100012e4:	300007b7          	lui	a5,0x30000
100012e8:	00c78793          	addi	a5,a5,12 # 3000000c <_etext+0x1fffd76c>
100012ec:	00100713          	li	a4,1
100012f0:	00e7a023          	sw	a4,0(a5)
100012f4:	300007b7          	lui	a5,0x30000
100012f8:	05000737          	lui	a4,0x5000
100012fc:	20170713          	addi	a4,a4,513 # 5000201 <_edata+0x4000201>
10001300:	00e7a023          	sw	a4,0(a5) # 30000000 <_etext+0x1fffd760>
10001304:	300007b7          	lui	a5,0x30000
10001308:	00478793          	addi	a5,a5,4 # 30000004 <_etext+0x1fffd764>
1000130c:	00100713          	li	a4,1
10001310:	00e7a023          	sw	a4,0(a5)
10001314:	300007b7          	lui	a5,0x30000
10001318:	00c78793          	addi	a5,a5,12 # 3000000c <_etext+0x1fffd76c>
1000131c:	00100713          	li	a4,1
10001320:	00e7a023          	sw	a4,0(a5)
10001324:	300007b7          	lui	a5,0x30000
10001328:	01000737          	lui	a4,0x1000
1000132c:	20170713          	addi	a4,a4,513 # 1000201 <_edata+0x201>
10001330:	00e7a023          	sw	a4,0(a5) # 30000000 <_etext+0x1fffd760>
10001334:	300007b7          	lui	a5,0x30000
10001338:	00478793          	addi	a5,a5,4 # 30000004 <_etext+0x1fffd764>
1000133c:	03c00713          	li	a4,60
10001340:	00e7a023          	sw	a4,0(a5)
10001344:	300007b7          	lui	a5,0x30000
10001348:	00c78793          	addi	a5,a5,12 # 3000000c <_etext+0x1fffd76c>
1000134c:	00100713          	li	a4,1
10001350:	00e7a023          	sw	a4,0(a5)
10001354:	300007b7          	lui	a5,0x30000
10001358:	04000737          	lui	a4,0x4000
1000135c:	20170713          	addi	a4,a4,513 # 4000201 <_edata+0x3000201>
10001360:	00e7a023          	sw	a4,0(a5) # 30000000 <_etext+0x1fffd760>
10001364:	300007b7          	lui	a5,0x30000
10001368:	00478793          	addi	a5,a5,4 # 30000004 <_etext+0x1fffd764>
1000136c:	00010737          	lui	a4,0x10
10001370:	08070713          	addi	a4,a4,128 # 10080 <_edata-0xfeff80>
10001374:	00e7a023          	sw	a4,0(a5)
10001378:	300007b7          	lui	a5,0x30000
1000137c:	00c78793          	addi	a5,a5,12 # 3000000c <_etext+0x1fffd76c>
10001380:	00100713          	li	a4,1
10001384:	00e7a023          	sw	a4,0(a5)
10001388:	300007b7          	lui	a5,0x30000
1000138c:	20100713          	li	a4,513
10001390:	00e7a023          	sw	a4,0(a5) # 30000000 <_etext+0x1fffd760>
10001394:	300007b7          	lui	a5,0x30000
10001398:	00478793          	addi	a5,a5,4 # 30000004 <_etext+0x1fffd764>
1000139c:	00010737          	lui	a4,0x10
100013a0:	88070713          	addi	a4,a4,-1920 # f880 <_edata-0xff0780>
100013a4:	00e7a023          	sw	a4,0(a5)
100013a8:	300007b7          	lui	a5,0x30000
100013ac:	00c78793          	addi	a5,a5,12 # 3000000c <_etext+0x1fffd76c>
100013b0:	00100713          	li	a4,1
100013b4:	00e7a023          	sw	a4,0(a5)
100013b8:	300007b7          	lui	a5,0x30000
100013bc:	03000737          	lui	a4,0x3000
100013c0:	20170713          	addi	a4,a4,513 # 3000201 <_edata+0x2000201>
100013c4:	00e7a023          	sw	a4,0(a5) # 30000000 <_etext+0x1fffd760>
100013c8:	300007b7          	lui	a5,0x30000
100013cc:	00478793          	addi	a5,a5,4 # 30000004 <_etext+0x1fffd764>
100013d0:	00010737          	lui	a4,0x10
100013d4:	00e7a023          	sw	a4,0(a5)
100013d8:	300007b7          	lui	a5,0x30000
100013dc:	00c78793          	addi	a5,a5,12 # 3000000c <_etext+0x1fffd76c>
100013e0:	00100713          	li	a4,1
100013e4:	00e7a023          	sw	a4,0(a5)
100013e8:	300007b7          	lui	a5,0x30000
100013ec:	51000737          	lui	a4,0x51000
100013f0:	20170713          	addi	a4,a4,513 # 51000201 <_etext+0x40ffd961>
100013f4:	00e7a023          	sw	a4,0(a5) # 30000000 <_etext+0x1fffd760>
100013f8:	300007b7          	lui	a5,0x30000
100013fc:	00478793          	addi	a5,a5,4 # 30000004 <_etext+0x1fffd764>
10001400:	40000713          	li	a4,1024
10001404:	00e7a023          	sw	a4,0(a5)
10001408:	300007b7          	lui	a5,0x30000
1000140c:	00c78793          	addi	a5,a5,12 # 3000000c <_etext+0x1fffd76c>
10001410:	00100713          	li	a4,1
10001414:	00e7a023          	sw	a4,0(a5)
10001418:	300007b7          	lui	a5,0x30000
1000141c:	4f000737          	lui	a4,0x4f000
10001420:	00170713          	addi	a4,a4,1 # 4f000001 <_etext+0x3effd761>
10001424:	00e7a023          	sw	a4,0(a5) # 30000000 <_etext+0x1fffd760>
10001428:	300007b7          	lui	a5,0x30000
1000142c:	00478793          	addi	a5,a5,4 # 30000004 <_etext+0x1fffd764>
10001430:	00100737          	lui	a4,0x100
10001434:	00e7a023          	sw	a4,0(a5)
10001438:	300007b7          	lui	a5,0x30000
1000143c:	00c78793          	addi	a5,a5,12 # 3000000c <_etext+0x1fffd76c>
10001440:	00100713          	li	a4,1
10001444:	00e7a023          	sw	a4,0(a5)
10001448:	300007b7          	lui	a5,0x30000
1000144c:	38000737          	lui	a4,0x38000
10001450:	00170713          	addi	a4,a4,1 # 38000001 <_etext+0x27ffd761>
10001454:	00e7a023          	sw	a4,0(a5) # 30000000 <_etext+0x1fffd760>
10001458:	300007b7          	lui	a5,0x30000
1000145c:	00478793          	addi	a5,a5,4 # 30000004 <_etext+0x1fffd764>
10001460:	00200713          	li	a4,2
10001464:	00e7a023          	sw	a4,0(a5)
10001468:	300007b7          	lui	a5,0x30000
1000146c:	00c78793          	addi	a5,a5,12 # 3000000c <_etext+0x1fffd76c>
10001470:	00100713          	li	a4,1
10001474:	00e7a023          	sw	a4,0(a5)
10001478:	300007b7          	lui	a5,0x30000
1000147c:	2d000737          	lui	a4,0x2d000
10001480:	00170713          	addi	a4,a4,1 # 2d000001 <_etext+0x1cffd761>
10001484:	00e7a023          	sw	a4,0(a5) # 30000000 <_etext+0x1fffd760>
10001488:	300007b7          	lui	a5,0x30000
1000148c:	00478793          	addi	a5,a5,4 # 30000004 <_etext+0x1fffd764>
10001490:	00100713          	li	a4,1
10001494:	00e7a023          	sw	a4,0(a5)
10001498:	300007b7          	lui	a5,0x30000
1000149c:	00c78793          	addi	a5,a5,12 # 3000000c <_etext+0x1fffd76c>
100014a0:	00100713          	li	a4,1
100014a4:	00e7a023          	sw	a4,0(a5)
100014a8:	300007b7          	lui	a5,0x30000
100014ac:	30000737          	lui	a4,0x30000
100014b0:	00170713          	addi	a4,a4,1 # 30000001 <_etext+0x1fffd761>
100014b4:	00e7a023          	sw	a4,0(a5) # 30000000 <_etext+0x1fffd760>
100014b8:	300007b7          	lui	a5,0x30000
100014bc:	00478793          	addi	a5,a5,4 # 30000004 <_etext+0x1fffd764>
100014c0:	000fe737          	lui	a4,0xfe
100014c4:	10070713          	addi	a4,a4,256 # fe100 <_edata-0xf01f00>
100014c8:	00e7a023          	sw	a4,0(a5)
100014cc:	300007b7          	lui	a5,0x30000
100014d0:	00c78793          	addi	a5,a5,12 # 3000000c <_etext+0x1fffd76c>
100014d4:	00100713          	li	a4,1
100014d8:	00e7a023          	sw	a4,0(a5)
100014dc:	300007b7          	lui	a5,0x30000
100014e0:	37000737          	lui	a4,0x37000
100014e4:	00170713          	addi	a4,a4,1 # 37000001 <_etext+0x26ffd761>
100014e8:	00e7a023          	sw	a4,0(a5) # 30000000 <_etext+0x1fffd760>
100014ec:	300007b7          	lui	a5,0x30000
100014f0:	00478793          	addi	a5,a5,4 # 30000004 <_etext+0x1fffd764>
100014f4:	00100713          	li	a4,1
100014f8:	00e7a023          	sw	a4,0(a5)
100014fc:	300007b7          	lui	a5,0x30000
10001500:	00c78793          	addi	a5,a5,12 # 3000000c <_etext+0x1fffd76c>
10001504:	00100713          	li	a4,1
10001508:	00e7a023          	sw	a4,0(a5)
1000150c:	300007b7          	lui	a5,0x30000
10001510:	49000737          	lui	a4,0x49000
10001514:	00170713          	addi	a4,a4,1 # 49000001 <_etext+0x38ffd761>
10001518:	00e7a023          	sw	a4,0(a5) # 30000000 <_etext+0x1fffd760>
1000151c:	300007b7          	lui	a5,0x30000
10001520:	00478793          	addi	a5,a5,4 # 30000004 <_etext+0x1fffd764>
10001524:	00100713          	li	a4,1
10001528:	00e7a023          	sw	a4,0(a5)
1000152c:	300007b7          	lui	a5,0x30000
10001530:	00c78793          	addi	a5,a5,12 # 3000000c <_etext+0x1fffd76c>
10001534:	00100713          	li	a4,1
10001538:	00e7a023          	sw	a4,0(a5)
1000153c:	300007b7          	lui	a5,0x30000
10001540:	46000737          	lui	a4,0x46000
10001544:	00170713          	addi	a4,a4,1 # 46000001 <_etext+0x35ffd761>
10001548:	00e7a023          	sw	a4,0(a5) # 30000000 <_etext+0x1fffd760>
1000154c:	300007b7          	lui	a5,0x30000
10001550:	00478793          	addi	a5,a5,4 # 30000004 <_etext+0x1fffd764>
10001554:	11000713          	li	a4,272
10001558:	00e7a023          	sw	a4,0(a5)
1000155c:	300007b7          	lui	a5,0x30000
10001560:	00c78793          	addi	a5,a5,12 # 3000000c <_etext+0x1fffd76c>
10001564:	00100713          	li	a4,1
10001568:	00e7a023          	sw	a4,0(a5)
1000156c:	300007b7          	lui	a5,0x30000
10001570:	40000737          	lui	a4,0x40000
10001574:	00170713          	addi	a4,a4,1 # 40000001 <_etext+0x2fffd761>
10001578:	00e7a023          	sw	a4,0(a5) # 30000000 <_etext+0x1fffd760>
1000157c:	300007b7          	lui	a5,0x30000
10001580:	00478793          	addi	a5,a5,4 # 30000004 <_etext+0x1fffd764>
10001584:	0fe00713          	li	a4,254
10001588:	00e7a023          	sw	a4,0(a5)
1000158c:	300007b7          	lui	a5,0x30000
10001590:	00c78793          	addi	a5,a5,12 # 3000000c <_etext+0x1fffd76c>
10001594:	00100713          	li	a4,1
10001598:	00e7a023          	sw	a4,0(a5)
1000159c:	300007b7          	lui	a5,0x30000
100015a0:	48000737          	lui	a4,0x48000
100015a4:	00170713          	addi	a4,a4,1 # 48000001 <_etext+0x37ffd761>
100015a8:	00e7a023          	sw	a4,0(a5) # 30000000 <_etext+0x1fffd760>
100015ac:	300007b7          	lui	a5,0x30000
100015b0:	00478793          	addi	a5,a5,4 # 30000004 <_etext+0x1fffd764>
100015b4:	00010737          	lui	a4,0x10
100015b8:	00270713          	addi	a4,a4,2 # 10002 <_edata-0xfefffe>
100015bc:	00e7a023          	sw	a4,0(a5)
100015c0:	300007b7          	lui	a5,0x30000
100015c4:	00c78793          	addi	a5,a5,12 # 3000000c <_etext+0x1fffd76c>
100015c8:	00100713          	li	a4,1
100015cc:	00e7a023          	sw	a4,0(a5)
100015d0:	300007b7          	lui	a5,0x30000
100015d4:	3f000737          	lui	a4,0x3f000
100015d8:	00170713          	addi	a4,a4,1 # 3f000001 <_etext+0x2effd761>
100015dc:	00e7a023          	sw	a4,0(a5) # 30000000 <_etext+0x1fffd760>
100015e0:	300007b7          	lui	a5,0x30000
100015e4:	00478793          	addi	a5,a5,4 # 30000004 <_etext+0x1fffd764>
100015e8:	00200713          	li	a4,2
100015ec:	00e7a023          	sw	a4,0(a5)
100015f0:	300007b7          	lui	a5,0x30000
100015f4:	00c78793          	addi	a5,a5,12 # 3000000c <_etext+0x1fffd76c>
100015f8:	00100713          	li	a4,1
100015fc:	00e7a023          	sw	a4,0(a5)
10001600:	300007b7          	lui	a5,0x30000
10001604:	47000737          	lui	a4,0x47000
10001608:	00170713          	addi	a4,a4,1 # 47000001 <_etext+0x36ffd761>
1000160c:	00e7a023          	sw	a4,0(a5) # 30000000 <_etext+0x1fffd760>
10001610:	300007b7          	lui	a5,0x30000
10001614:	00478793          	addi	a5,a5,4 # 30000004 <_etext+0x1fffd764>
10001618:	01000737          	lui	a4,0x1000
1000161c:	00e7a023          	sw	a4,0(a5)
10001620:	300007b7          	lui	a5,0x30000
10001624:	00c78793          	addi	a5,a5,12 # 3000000c <_etext+0x1fffd76c>
10001628:	00100713          	li	a4,1
1000162c:	00e7a023          	sw	a4,0(a5)
10001630:	300007b7          	lui	a5,0x30000
10001634:	51000737          	lui	a4,0x51000
10001638:	00170713          	addi	a4,a4,1 # 51000001 <_etext+0x40ffd761>
1000163c:	00e7a023          	sw	a4,0(a5) # 30000000 <_etext+0x1fffd760>
10001640:	300007b7          	lui	a5,0x30000
10001644:	00478793          	addi	a5,a5,4 # 30000004 <_etext+0x1fffd764>
10001648:	40000713          	li	a4,1024
1000164c:	00e7a023          	sw	a4,0(a5)
10001650:	300007b7          	lui	a5,0x30000
10001654:	00c78793          	addi	a5,a5,12 # 3000000c <_etext+0x1fffd76c>
10001658:	00100713          	li	a4,1
1000165c:	00e7a023          	sw	a4,0(a5)
10001660:	300007b7          	lui	a5,0x30000
10001664:	1b000737          	lui	a4,0x1b000
10001668:	10170713          	addi	a4,a4,257 # 1b000101 <_etext+0xaffd861>
1000166c:	00e7a023          	sw	a4,0(a5) # 30000000 <_etext+0x1fffd760>
10001670:	300007b7          	lui	a5,0x30000
10001674:	00478793          	addi	a5,a5,4 # 30000004 <_etext+0x1fffd764>
10001678:	00200713          	li	a4,2
1000167c:	00e7a023          	sw	a4,0(a5)
10001680:	300007b7          	lui	a5,0x30000
10001684:	00c78793          	addi	a5,a5,12 # 3000000c <_etext+0x1fffd76c>
10001688:	00100713          	li	a4,1
1000168c:	00e7a023          	sw	a4,0(a5)
10001690:	300007b7          	lui	a5,0x30000
10001694:	29000737          	lui	a4,0x29000
10001698:	10170713          	addi	a4,a4,257 # 29000101 <_etext+0x18ffd861>
1000169c:	00e7a023          	sw	a4,0(a5) # 30000000 <_etext+0x1fffd760>
100016a0:	300007b7          	lui	a5,0x30000
100016a4:	00478793          	addi	a5,a5,4 # 30000004 <_etext+0x1fffd764>
100016a8:	20000713          	li	a4,512
100016ac:	00e7a023          	sw	a4,0(a5)
100016b0:	300007b7          	lui	a5,0x30000
100016b4:	00c78793          	addi	a5,a5,12 # 3000000c <_etext+0x1fffd76c>
100016b8:	00100713          	li	a4,1
100016bc:	00e7a023          	sw	a4,0(a5)
100016c0:	300007b7          	lui	a5,0x30000
100016c4:	22000737          	lui	a4,0x22000
100016c8:	10170713          	addi	a4,a4,257 # 22000101 <_etext+0x11ffd861>
100016cc:	00e7a023          	sw	a4,0(a5) # 30000000 <_etext+0x1fffd760>
100016d0:	300007b7          	lui	a5,0x30000
100016d4:	00478793          	addi	a5,a5,4 # 30000004 <_etext+0x1fffd764>
100016d8:	00001737          	lui	a4,0x1
100016dc:	fe170713          	addi	a4,a4,-31 # fe1 <_edata-0xfff01f>
100016e0:	00e7a023          	sw	a4,0(a5)
100016e4:	300007b7          	lui	a5,0x30000
100016e8:	00c78793          	addi	a5,a5,12 # 3000000c <_etext+0x1fffd76c>
100016ec:	00100713          	li	a4,1
100016f0:	00e7a023          	sw	a4,0(a5)
100016f4:	300007b7          	lui	a5,0x30000
100016f8:	07000737          	lui	a4,0x7000
100016fc:	10170713          	addi	a4,a4,257 # 7000101 <_edata+0x6000101>
10001700:	00e7a023          	sw	a4,0(a5) # 30000000 <_etext+0x1fffd760>
10001704:	300007b7          	lui	a5,0x30000
10001708:	00478793          	addi	a5,a5,4 # 30000004 <_etext+0x1fffd764>
1000170c:	00100737          	lui	a4,0x100
10001710:	00e7a023          	sw	a4,0(a5)
10001714:	300007b7          	lui	a5,0x30000
10001718:	00c78793          	addi	a5,a5,12 # 3000000c <_etext+0x1fffd76c>
1000171c:	00100713          	li	a4,1
10001720:	00e7a023          	sw	a4,0(a5)
10001724:	300007b7          	lui	a5,0x30000
10001728:	1a000737          	lui	a4,0x1a000
1000172c:	10170713          	addi	a4,a4,257 # 1a000101 <_etext+0x9ffd861>
10001730:	00e7a023          	sw	a4,0(a5) # 30000000 <_etext+0x1fffd760>
10001734:	300007b7          	lui	a5,0x30000
10001738:	00478793          	addi	a5,a5,4 # 30000004 <_etext+0x1fffd764>
1000173c:	00900713          	li	a4,9
10001740:	00e7a023          	sw	a4,0(a5)
10001744:	300007b7          	lui	a5,0x30000
10001748:	00c78793          	addi	a5,a5,12 # 3000000c <_etext+0x1fffd76c>
1000174c:	00100713          	li	a4,1
10001750:	00e7a023          	sw	a4,0(a5)
10001754:	300007b7          	lui	a5,0x30000
10001758:	0c000737          	lui	a4,0xc000
1000175c:	10170713          	addi	a4,a4,257 # c000101 <_edata+0xb000101>
10001760:	00e7a023          	sw	a4,0(a5) # 30000000 <_etext+0x1fffd760>
10001764:	300007b7          	lui	a5,0x30000
10001768:	00478793          	addi	a5,a5,4 # 30000004 <_etext+0x1fffd764>
1000176c:	00010737          	lui	a4,0x10
10001770:	00170713          	addi	a4,a4,1 # 10001 <_edata-0xfeffff>
10001774:	00e7a023          	sw	a4,0(a5)
10001778:	300007b7          	lui	a5,0x30000
1000177c:	00c78793          	addi	a5,a5,12 # 3000000c <_etext+0x1fffd76c>
10001780:	00100713          	li	a4,1
10001784:	00e7a023          	sw	a4,0(a5)
10001788:	300007b7          	lui	a5,0x30000
1000178c:	09000737          	lui	a4,0x9000
10001790:	10170713          	addi	a4,a4,257 # 9000101 <_edata+0x8000101>
10001794:	00e7a023          	sw	a4,0(a5) # 30000000 <_etext+0x1fffd760>
10001798:	300007b7          	lui	a5,0x30000
1000179c:	00478793          	addi	a5,a5,4 # 30000004 <_etext+0x1fffd764>
100017a0:	00011737          	lui	a4,0x11
100017a4:	00e7a023          	sw	a4,0(a5)
100017a8:	300007b7          	lui	a5,0x30000
100017ac:	00c78793          	addi	a5,a5,12 # 3000000c <_etext+0x1fffd76c>
100017b0:	00100713          	li	a4,1
100017b4:	00e7a023          	sw	a4,0(a5)
100017b8:	300007b7          	lui	a5,0x30000
100017bc:	14000737          	lui	a4,0x14000
100017c0:	10170713          	addi	a4,a4,257 # 14000101 <_etext+0x3ffd861>
100017c4:	00e7a023          	sw	a4,0(a5) # 30000000 <_etext+0x1fffd760>
100017c8:	300007b7          	lui	a5,0x30000
100017cc:	00478793          	addi	a5,a5,4 # 30000004 <_etext+0x1fffd764>
100017d0:	0fe00713          	li	a4,254
100017d4:	00e7a023          	sw	a4,0(a5)
100017d8:	300007b7          	lui	a5,0x30000
100017dc:	00c78793          	addi	a5,a5,12 # 3000000c <_etext+0x1fffd76c>
100017e0:	00100713          	li	a4,1
100017e4:	00e7a023          	sw	a4,0(a5)
100017e8:	300007b7          	lui	a5,0x30000
100017ec:	13000737          	lui	a4,0x13000
100017f0:	10170713          	addi	a4,a4,257 # 13000101 <_etext+0x2ffd861>
100017f4:	00e7a023          	sw	a4,0(a5) # 30000000 <_etext+0x1fffd760>
100017f8:	300007b7          	lui	a5,0x30000
100017fc:	00478793          	addi	a5,a5,4 # 30000004 <_etext+0x1fffd764>
10001800:	00200713          	li	a4,2
10001804:	00e7a023          	sw	a4,0(a5)
10001808:	300007b7          	lui	a5,0x30000
1000180c:	00c78793          	addi	a5,a5,12 # 3000000c <_etext+0x1fffd76c>
10001810:	00100713          	li	a4,1
10001814:	00e7a023          	sw	a4,0(a5)
10001818:	300007b7          	lui	a5,0x30000
1000181c:	0b000737          	lui	a4,0xb000
10001820:	10170713          	addi	a4,a4,257 # b000101 <_edata+0xa000101>
10001824:	00e7a023          	sw	a4,0(a5) # 30000000 <_etext+0x1fffd760>
10001828:	300007b7          	lui	a5,0x30000
1000182c:	00478793          	addi	a5,a5,4 # 30000004 <_etext+0x1fffd764>
10001830:	00500713          	li	a4,5
10001834:	00e7a023          	sw	a4,0(a5)
10001838:	300007b7          	lui	a5,0x30000
1000183c:	00c78793          	addi	a5,a5,12 # 3000000c <_etext+0x1fffd76c>
10001840:	00100713          	li	a4,1
10001844:	00e7a023          	sw	a4,0(a5)
10001848:	300007b7          	lui	a5,0x30000
1000184c:	51000737          	lui	a4,0x51000
10001850:	10170713          	addi	a4,a4,257 # 51000101 <_etext+0x40ffd861>
10001854:	00e7a023          	sw	a4,0(a5) # 30000000 <_etext+0x1fffd760>
10001858:	300007b7          	lui	a5,0x30000
1000185c:	00478793          	addi	a5,a5,4 # 30000004 <_etext+0x1fffd764>
10001860:	40000713          	li	a4,1024
10001864:	00e7a023          	sw	a4,0(a5)
10001868:	300007b7          	lui	a5,0x30000
1000186c:	00c78793          	addi	a5,a5,12 # 3000000c <_etext+0x1fffd76c>
10001870:	00100713          	li	a4,1
10001874:	00e7a023          	sw	a4,0(a5)
10001878:	300007b7          	lui	a5,0x30000
1000187c:	00200713          	li	a4,2
10001880:	00e7a023          	sw	a4,0(a5) # 30000000 <_etext+0x1fffd760>
10001884:	300007b7          	lui	a5,0x30000
10001888:	00478793          	addi	a5,a5,4 # 30000004 <_etext+0x1fffd764>
1000188c:	00800737          	lui	a4,0x800
10001890:	00e7a023          	sw	a4,0(a5)
10001894:	300007b7          	lui	a5,0x30000
10001898:	00c78793          	addi	a5,a5,12 # 3000000c <_etext+0x1fffd76c>
1000189c:	00100713          	li	a4,1
100018a0:	00e7a023          	sw	a4,0(a5)
100018a4:	300007b7          	lui	a5,0x30000
100018a8:	01000737          	lui	a4,0x1000
100018ac:	00270713          	addi	a4,a4,2 # 1000002 <_edata+0x2>
100018b0:	00e7a023          	sw	a4,0(a5) # 30000000 <_etext+0x1fffd760>
100018b4:	300007b7          	lui	a5,0x30000
100018b8:	00478793          	addi	a5,a5,4 # 30000004 <_etext+0x1fffd764>
100018bc:	48000737          	lui	a4,0x48000
100018c0:	20070713          	addi	a4,a4,512 # 48000200 <_etext+0x37ffd960>
100018c4:	00e7a023          	sw	a4,0(a5)
100018c8:	300007b7          	lui	a5,0x30000
100018cc:	00c78793          	addi	a5,a5,12 # 3000000c <_etext+0x1fffd76c>
100018d0:	00100713          	li	a4,1
100018d4:	00e7a023          	sw	a4,0(a5)
100018d8:	300007b7          	lui	a5,0x30000
100018dc:	02000737          	lui	a4,0x2000
100018e0:	00270713          	addi	a4,a4,2 # 2000002 <_edata+0x1000002>
100018e4:	00e7a023          	sw	a4,0(a5) # 30000000 <_etext+0x1fffd760>
100018e8:	300007b7          	lui	a5,0x30000
100018ec:	00478793          	addi	a5,a5,4 # 30000004 <_etext+0x1fffd764>
100018f0:	00200713          	li	a4,2
100018f4:	00e7a023          	sw	a4,0(a5)
100018f8:	300007b7          	lui	a5,0x30000
100018fc:	00c78793          	addi	a5,a5,12 # 3000000c <_etext+0x1fffd76c>
10001900:	00100713          	li	a4,1
10001904:	00e7a023          	sw	a4,0(a5)
10001908:	300007b7          	lui	a5,0x30000
1000190c:	10200713          	li	a4,258
10001910:	00e7a023          	sw	a4,0(a5) # 30000000 <_etext+0x1fffd760>
10001914:	300007b7          	lui	a5,0x30000
10001918:	00478793          	addi	a5,a5,4 # 30000004 <_etext+0x1fffd764>
1000191c:	00800737          	lui	a4,0x800
10001920:	00e7a023          	sw	a4,0(a5)
10001924:	300007b7          	lui	a5,0x30000
10001928:	00c78793          	addi	a5,a5,12 # 3000000c <_etext+0x1fffd76c>
1000192c:	00100713          	li	a4,1
10001930:	00e7a023          	sw	a4,0(a5)
10001934:	300007b7          	lui	a5,0x30000
10001938:	01000737          	lui	a4,0x1000
1000193c:	10270713          	addi	a4,a4,258 # 1000102 <_edata+0x102>
10001940:	00e7a023          	sw	a4,0(a5) # 30000000 <_etext+0x1fffd760>
10001944:	300007b7          	lui	a5,0x30000
10001948:	00478793          	addi	a5,a5,4 # 30000004 <_etext+0x1fffd764>
1000194c:	48000737          	lui	a4,0x48000
10001950:	20070713          	addi	a4,a4,512 # 48000200 <_etext+0x37ffd960>
10001954:	00e7a023          	sw	a4,0(a5)
10001958:	300007b7          	lui	a5,0x30000
1000195c:	00c78793          	addi	a5,a5,12 # 3000000c <_etext+0x1fffd76c>
10001960:	00100713          	li	a4,1
10001964:	00e7a023          	sw	a4,0(a5)
10001968:	300007b7          	lui	a5,0x30000
1000196c:	02000737          	lui	a4,0x2000
10001970:	10270713          	addi	a4,a4,258 # 2000102 <_edata+0x1000102>
10001974:	00e7a023          	sw	a4,0(a5) # 30000000 <_etext+0x1fffd760>
10001978:	300007b7          	lui	a5,0x30000
1000197c:	00478793          	addi	a5,a5,4 # 30000004 <_etext+0x1fffd764>
10001980:	00200713          	li	a4,2
10001984:	00e7a023          	sw	a4,0(a5)
10001988:	300007b7          	lui	a5,0x30000
1000198c:	00c78793          	addi	a5,a5,12 # 3000000c <_etext+0x1fffd76c>
10001990:	00100713          	li	a4,1
10001994:	00e7a023          	sw	a4,0(a5)
10001998:	300007b7          	lui	a5,0x30000
1000199c:	20200713          	li	a4,514
100019a0:	00e7a023          	sw	a4,0(a5) # 30000000 <_etext+0x1fffd760>
100019a4:	300007b7          	lui	a5,0x30000
100019a8:	00478793          	addi	a5,a5,4 # 30000004 <_etext+0x1fffd764>
100019ac:	001c8737          	lui	a4,0x1c8
100019b0:	e0070713          	addi	a4,a4,-512 # 1c7e00 <_edata-0xe38200>
100019b4:	00e7a023          	sw	a4,0(a5)
100019b8:	300007b7          	lui	a5,0x30000
100019bc:	00c78793          	addi	a5,a5,12 # 3000000c <_etext+0x1fffd76c>
100019c0:	00100713          	li	a4,1
100019c4:	00e7a023          	sw	a4,0(a5)
100019c8:	fe042623          	sw	zero,-20(s0)
100019cc:	300007b7          	lui	a5,0x30000
100019d0:	01090737          	lui	a4,0x1090
100019d4:	10170713          	addi	a4,a4,257 # 1090101 <_edata+0x90101>
100019d8:	00e7a023          	sw	a4,0(a5) # 30000000 <_etext+0x1fffd760>
100019dc:	300007b7          	lui	a5,0x30000
100019e0:	01078793          	addi	a5,a5,16 # 30000010 <_etext+0x1fffd770>
100019e4:	00100713          	li	a4,1
100019e8:	00e7a023          	sw	a4,0(a5)
100019ec:	300007b7          	lui	a5,0x30000
100019f0:	00878793          	addi	a5,a5,8 # 30000008 <_etext+0x1fffd768>
100019f4:	0007a783          	lw	a5,0(a5)
100019f8:	fef42423          	sw	a5,-24(s0)
100019fc:	fe842703          	lw	a4,-24(s0)
10001a00:	01000793          	li	a5,16
10001a04:	00f70663          	beq	a4,a5,10001a10 <CGRA_load_bs+0xa90>
10001a08:	00100793          	li	a5,1
10001a0c:	fef42623          	sw	a5,-20(s0)
10001a10:	300007b7          	lui	a5,0x30000
10001a14:	00090737          	lui	a4,0x90
10001a18:	10170713          	addi	a4,a4,257 # 90101 <_edata-0xf6feff>
10001a1c:	00e7a023          	sw	a4,0(a5) # 30000000 <_etext+0x1fffd760>
10001a20:	300007b7          	lui	a5,0x30000
10001a24:	01078793          	addi	a5,a5,16 # 30000010 <_etext+0x1fffd770>
10001a28:	00100713          	li	a4,1
10001a2c:	00e7a023          	sw	a4,0(a5)
10001a30:	300007b7          	lui	a5,0x30000
10001a34:	00878793          	addi	a5,a5,8 # 30000008 <_etext+0x1fffd768>
10001a38:	0007a783          	lw	a5,0(a5)
10001a3c:	fef42423          	sw	a5,-24(s0)
10001a40:	fe842703          	lw	a4,-24(s0)
10001a44:	000507b7          	lui	a5,0x50
10001a48:	00f70663          	beq	a4,a5,10001a54 <CGRA_load_bs+0xad4>
10001a4c:	00100793          	li	a5,1
10001a50:	fef42623          	sw	a5,-20(s0)
10001a54:	300007b7          	lui	a5,0x30000
10001a58:	00020737          	lui	a4,0x20
10001a5c:	00170713          	addi	a4,a4,1 # 20001 <_edata-0xfdffff>
10001a60:	00e7a023          	sw	a4,0(a5) # 30000000 <_etext+0x1fffd760>
10001a64:	300007b7          	lui	a5,0x30000
10001a68:	01078793          	addi	a5,a5,16 # 30000010 <_etext+0x1fffd770>
10001a6c:	00100713          	li	a4,1
10001a70:	00e7a023          	sw	a4,0(a5)
10001a74:	300007b7          	lui	a5,0x30000
10001a78:	00878793          	addi	a5,a5,8 # 30000008 <_etext+0x1fffd768>
10001a7c:	0007a783          	lw	a5,0(a5)
10001a80:	fef42423          	sw	a5,-24(s0)
10001a84:	fe842703          	lw	a4,-24(s0)
10001a88:	00600793          	li	a5,6
10001a8c:	00f70663          	beq	a4,a5,10001a98 <CGRA_load_bs+0xb18>
10001a90:	00100793          	li	a5,1
10001a94:	fef42623          	sw	a5,-20(s0)
10001a98:	300007b7          	lui	a5,0x30000
10001a9c:	01090737          	lui	a4,0x1090
10001aa0:	20170713          	addi	a4,a4,513 # 1090201 <_edata+0x90201>
10001aa4:	00e7a023          	sw	a4,0(a5) # 30000000 <_etext+0x1fffd760>
10001aa8:	300007b7          	lui	a5,0x30000
10001aac:	01078793          	addi	a5,a5,16 # 30000010 <_etext+0x1fffd770>
10001ab0:	00100713          	li	a4,1
10001ab4:	00e7a023          	sw	a4,0(a5)
10001ab8:	300007b7          	lui	a5,0x30000
10001abc:	00878793          	addi	a5,a5,8 # 30000008 <_etext+0x1fffd768>
10001ac0:	0007a783          	lw	a5,0(a5)
10001ac4:	fef42423          	sw	a5,-24(s0)
10001ac8:	fe842703          	lw	a4,-24(s0)
10001acc:	000057b7          	lui	a5,0x5
10001ad0:	00878793          	addi	a5,a5,8 # 5008 <_edata-0xffaff8>
10001ad4:	00f70663          	beq	a4,a5,10001ae0 <CGRA_load_bs+0xb60>
10001ad8:	00100793          	li	a5,1
10001adc:	fef42623          	sw	a5,-20(s0)
10001ae0:	300007b7          	lui	a5,0x30000
10001ae4:	00020737          	lui	a4,0x20
10001ae8:	10170713          	addi	a4,a4,257 # 20101 <_edata-0xfdfeff>
10001aec:	00e7a023          	sw	a4,0(a5) # 30000000 <_etext+0x1fffd760>
10001af0:	300007b7          	lui	a5,0x30000
10001af4:	01078793          	addi	a5,a5,16 # 30000010 <_etext+0x1fffd770>
10001af8:	00100713          	li	a4,1
10001afc:	00e7a023          	sw	a4,0(a5)
10001b00:	300007b7          	lui	a5,0x30000
10001b04:	00878793          	addi	a5,a5,8 # 30000008 <_etext+0x1fffd768>
10001b08:	0007a783          	lw	a5,0(a5)
10001b0c:	fef42423          	sw	a5,-24(s0)
10001b10:	fe842703          	lw	a4,-24(s0)
10001b14:	00600793          	li	a5,6
10001b18:	00f70663          	beq	a4,a5,10001b24 <CGRA_load_bs+0xba4>
10001b1c:	00100793          	li	a5,1
10001b20:	fef42623          	sw	a5,-20(s0)
10001b24:	300007b7          	lui	a5,0x30000
10001b28:	00060737          	lui	a4,0x60
10001b2c:	20270713          	addi	a4,a4,514 # 60202 <_edata-0xf9fdfe>
10001b30:	00e7a023          	sw	a4,0(a5) # 30000000 <_etext+0x1fffd760>
10001b34:	300007b7          	lui	a5,0x30000
10001b38:	01078793          	addi	a5,a5,16 # 30000010 <_etext+0x1fffd770>
10001b3c:	00100713          	li	a4,1
10001b40:	00e7a023          	sw	a4,0(a5)
10001b44:	300007b7          	lui	a5,0x30000
10001b48:	00878793          	addi	a5,a5,8 # 30000008 <_etext+0x1fffd768>
10001b4c:	0007a783          	lw	a5,0(a5)
10001b50:	fef42423          	sw	a5,-24(s0)
10001b54:	fe842703          	lw	a4,-24(s0)
10001b58:	0000c7b7          	lui	a5,0xc
10001b5c:	00f70663          	beq	a4,a5,10001b68 <CGRA_load_bs+0xbe8>
10001b60:	00100793          	li	a5,1
10001b64:	fef42623          	sw	a5,-20(s0)
10001b68:	300007b7          	lui	a5,0x30000
10001b6c:	00020737          	lui	a4,0x20
10001b70:	20170713          	addi	a4,a4,513 # 20201 <_edata-0xfdfdff>
10001b74:	00e7a023          	sw	a4,0(a5) # 30000000 <_etext+0x1fffd760>
10001b78:	300007b7          	lui	a5,0x30000
10001b7c:	01078793          	addi	a5,a5,16 # 30000010 <_etext+0x1fffd770>
10001b80:	00100713          	li	a4,1
10001b84:	00e7a023          	sw	a4,0(a5)
10001b88:	300007b7          	lui	a5,0x30000
10001b8c:	00878793          	addi	a5,a5,8 # 30000008 <_etext+0x1fffd768>
10001b90:	0007a783          	lw	a5,0(a5)
10001b94:	fef42423          	sw	a5,-24(s0)
10001b98:	fe842703          	lw	a4,-24(s0)
10001b9c:	00100793          	li	a5,1
10001ba0:	00f70663          	beq	a4,a5,10001bac <CGRA_load_bs+0xc2c>
10001ba4:	00100793          	li	a5,1
10001ba8:	fef42623          	sw	a5,-20(s0)
10001bac:	300007b7          	lui	a5,0x30000
10001bb0:	00060737          	lui	a4,0x60
10001bb4:	10270713          	addi	a4,a4,258 # 60102 <_edata-0xf9fefe>
10001bb8:	00e7a023          	sw	a4,0(a5) # 30000000 <_etext+0x1fffd760>
10001bbc:	300007b7          	lui	a5,0x30000
10001bc0:	01078793          	addi	a5,a5,16 # 30000010 <_etext+0x1fffd770>
10001bc4:	00100713          	li	a4,1
10001bc8:	00e7a023          	sw	a4,0(a5)
10001bcc:	300007b7          	lui	a5,0x30000
10001bd0:	00878793          	addi	a5,a5,8 # 30000008 <_etext+0x1fffd768>
10001bd4:	0007a783          	lw	a5,0(a5)
10001bd8:	fef42423          	sw	a5,-24(s0)
10001bdc:	fe842703          	lw	a4,-24(s0)
10001be0:	000147b7          	lui	a5,0x14
10001be4:	00f70663          	beq	a4,a5,10001bf0 <CGRA_load_bs+0xc70>
10001be8:	00100793          	li	a5,1
10001bec:	fef42623          	sw	a5,-20(s0)
10001bf0:	300007b7          	lui	a5,0x30000
10001bf4:	000a0737          	lui	a4,0xa0
10001bf8:	00170713          	addi	a4,a4,1 # a0001 <_edata-0xf5ffff>
10001bfc:	00e7a023          	sw	a4,0(a5) # 30000000 <_etext+0x1fffd760>
10001c00:	300007b7          	lui	a5,0x30000
10001c04:	01078793          	addi	a5,a5,16 # 30000010 <_etext+0x1fffd770>
10001c08:	00100713          	li	a4,1
10001c0c:	00e7a023          	sw	a4,0(a5)
10001c10:	300007b7          	lui	a5,0x30000
10001c14:	00878793          	addi	a5,a5,8 # 30000008 <_etext+0x1fffd768>
10001c18:	0007a783          	lw	a5,0(a5)
10001c1c:	fef42423          	sw	a5,-24(s0)
10001c20:	fe842703          	lw	a4,-24(s0)
10001c24:	032407b7          	lui	a5,0x3240
10001c28:	00f70663          	beq	a4,a5,10001c34 <CGRA_load_bs+0xcb4>
10001c2c:	00100793          	li	a5,1
10001c30:	fef42623          	sw	a5,-20(s0)
10001c34:	300007b7          	lui	a5,0x30000
10001c38:	010a0737          	lui	a4,0x10a0
10001c3c:	00170713          	addi	a4,a4,1 # 10a0001 <_edata+0xa0001>
10001c40:	00e7a023          	sw	a4,0(a5) # 30000000 <_etext+0x1fffd760>
10001c44:	300007b7          	lui	a5,0x30000
10001c48:	01078793          	addi	a5,a5,16 # 30000010 <_etext+0x1fffd770>
10001c4c:	00100713          	li	a4,1
10001c50:	00e7a023          	sw	a4,0(a5)
10001c54:	300007b7          	lui	a5,0x30000
10001c58:	00878793          	addi	a5,a5,8 # 30000008 <_etext+0x1fffd768>
10001c5c:	0007a783          	lw	a5,0(a5)
10001c60:	fef42423          	sw	a5,-24(s0)
10001c64:	fe842703          	lw	a4,-24(s0)
10001c68:	000037b7          	lui	a5,0x3
10001c6c:	00f70663          	beq	a4,a5,10001c78 <CGRA_load_bs+0xcf8>
10001c70:	00100793          	li	a5,1
10001c74:	fef42623          	sw	a5,-20(s0)
10001c78:	300007b7          	lui	a5,0x30000
10001c7c:	00040737          	lui	a4,0x40
10001c80:	00270713          	addi	a4,a4,2 # 40002 <_edata-0xfbfffe>
10001c84:	00e7a023          	sw	a4,0(a5) # 30000000 <_etext+0x1fffd760>
10001c88:	300007b7          	lui	a5,0x30000
10001c8c:	01078793          	addi	a5,a5,16 # 30000010 <_etext+0x1fffd770>
10001c90:	00100713          	li	a4,1
10001c94:	00e7a023          	sw	a4,0(a5)
10001c98:	300007b7          	lui	a5,0x30000
10001c9c:	00878793          	addi	a5,a5,8 # 30000008 <_etext+0x1fffd768>
10001ca0:	0007a783          	lw	a5,0(a5)
10001ca4:	fef42423          	sw	a5,-24(s0)
10001ca8:	fe842703          	lw	a4,-24(s0)
10001cac:	00800793          	li	a5,8
10001cb0:	00f70663          	beq	a4,a5,10001cbc <CGRA_load_bs+0xd3c>
10001cb4:	00100793          	li	a5,1
10001cb8:	fef42623          	sw	a5,-20(s0)
10001cbc:	300007b7          	lui	a5,0x30000
10001cc0:	00050737          	lui	a4,0x50
10001cc4:	10170713          	addi	a4,a4,257 # 50101 <_edata-0xfafeff>
10001cc8:	00e7a023          	sw	a4,0(a5) # 30000000 <_etext+0x1fffd760>
10001ccc:	300007b7          	lui	a5,0x30000
10001cd0:	01078793          	addi	a5,a5,16 # 30000010 <_etext+0x1fffd770>
10001cd4:	00100713          	li	a4,1
10001cd8:	00e7a023          	sw	a4,0(a5)
10001cdc:	300007b7          	lui	a5,0x30000
10001ce0:	00878793          	addi	a5,a5,8 # 30000008 <_etext+0x1fffd768>
10001ce4:	0007a783          	lw	a5,0(a5)
10001ce8:	fef42423          	sw	a5,-24(s0)
10001cec:	fe842703          	lw	a4,-24(s0)
10001cf0:	00700793          	li	a5,7
10001cf4:	00f70663          	beq	a4,a5,10001d00 <CGRA_load_bs+0xd80>
10001cf8:	00100793          	li	a5,1
10001cfc:	fef42623          	sw	a5,-20(s0)
10001d00:	300007b7          	lui	a5,0x30000
10001d04:	00070737          	lui	a4,0x70
10001d08:	10270713          	addi	a4,a4,258 # 70102 <_edata-0xf8fefe>
10001d0c:	00e7a023          	sw	a4,0(a5) # 30000000 <_etext+0x1fffd760>
10001d10:	300007b7          	lui	a5,0x30000
10001d14:	01078793          	addi	a5,a5,16 # 30000010 <_etext+0x1fffd770>
10001d18:	00100713          	li	a4,1
10001d1c:	00e7a023          	sw	a4,0(a5)
10001d20:	300007b7          	lui	a5,0x30000
10001d24:	00878793          	addi	a5,a5,8 # 30000008 <_etext+0x1fffd768>
10001d28:	0007a783          	lw	a5,0(a5)
10001d2c:	fef42423          	sw	a5,-24(s0)
10001d30:	fe842703          	lw	a4,-24(s0)
10001d34:	4014c7b7          	lui	a5,0x4014c
10001d38:	00f70663          	beq	a4,a5,10001d44 <CGRA_load_bs+0xdc4>
10001d3c:	00100793          	li	a5,1
10001d40:	fef42623          	sw	a5,-20(s0)
10001d44:	300007b7          	lui	a5,0x30000
10001d48:	000a0737          	lui	a4,0xa0
10001d4c:	10170713          	addi	a4,a4,257 # a0101 <_edata-0xf5feff>
10001d50:	00e7a023          	sw	a4,0(a5) # 30000000 <_etext+0x1fffd760>
10001d54:	300007b7          	lui	a5,0x30000
10001d58:	01078793          	addi	a5,a5,16 # 30000010 <_etext+0x1fffd770>
10001d5c:	00100713          	li	a4,1
10001d60:	00e7a023          	sw	a4,0(a5)
10001d64:	300007b7          	lui	a5,0x30000
10001d68:	00878793          	addi	a5,a5,8 # 30000008 <_etext+0x1fffd768>
10001d6c:	0007a783          	lw	a5,0(a5)
10001d70:	fef42423          	sw	a5,-24(s0)
10001d74:	fe842703          	lw	a4,-24(s0)
10001d78:	000d07b7          	lui	a5,0xd0
10001d7c:	00f70663          	beq	a4,a5,10001d88 <CGRA_load_bs+0xe08>
10001d80:	00100793          	li	a5,1
10001d84:	fef42623          	sw	a5,-20(s0)
10001d88:	300007b7          	lui	a5,0x30000
10001d8c:	00070737          	lui	a4,0x70
10001d90:	00270713          	addi	a4,a4,2 # 70002 <_edata-0xf8fffe>
10001d94:	00e7a023          	sw	a4,0(a5) # 30000000 <_etext+0x1fffd760>
10001d98:	300007b7          	lui	a5,0x30000
10001d9c:	01078793          	addi	a5,a5,16 # 30000010 <_etext+0x1fffd770>
10001da0:	00100713          	li	a4,1
10001da4:	00e7a023          	sw	a4,0(a5)
10001da8:	300007b7          	lui	a5,0x30000
10001dac:	00878793          	addi	a5,a5,8 # 30000008 <_etext+0x1fffd768>
10001db0:	0007a783          	lw	a5,0(a5)
10001db4:	fef42423          	sw	a5,-24(s0)
10001db8:	fe842703          	lw	a4,-24(s0)
10001dbc:	043407b7          	lui	a5,0x4340
10001dc0:	00f70663          	beq	a4,a5,10001dcc <CGRA_load_bs+0xe4c>
10001dc4:	00100793          	li	a5,1
10001dc8:	fef42623          	sw	a5,-20(s0)
10001dcc:	300007b7          	lui	a5,0x30000
10001dd0:	00050737          	lui	a4,0x50
10001dd4:	10270713          	addi	a4,a4,258 # 50102 <_edata-0xfafefe>
10001dd8:	00e7a023          	sw	a4,0(a5) # 30000000 <_etext+0x1fffd760>
10001ddc:	300007b7          	lui	a5,0x30000
10001de0:	01078793          	addi	a5,a5,16 # 30000010 <_etext+0x1fffd770>
10001de4:	00100713          	li	a4,1
10001de8:	00e7a023          	sw	a4,0(a5)
10001dec:	300007b7          	lui	a5,0x30000
10001df0:	00878793          	addi	a5,a5,8 # 30000008 <_etext+0x1fffd768>
10001df4:	0007a783          	lw	a5,0(a5)
10001df8:	fef42423          	sw	a5,-24(s0)
10001dfc:	fe842703          	lw	a4,-24(s0)
10001e00:	00700793          	li	a5,7
10001e04:	00f70663          	beq	a4,a5,10001e10 <CGRA_load_bs+0xe90>
10001e08:	00100793          	li	a5,1
10001e0c:	fef42623          	sw	a5,-20(s0)
10001e10:	300007b7          	lui	a5,0x30000
10001e14:	00090737          	lui	a4,0x90
10001e18:	00170713          	addi	a4,a4,1 # 90001 <_edata-0xf6ffff>
10001e1c:	00e7a023          	sw	a4,0(a5) # 30000000 <_etext+0x1fffd760>
10001e20:	300007b7          	lui	a5,0x30000
10001e24:	01078793          	addi	a5,a5,16 # 30000010 <_etext+0x1fffd770>
10001e28:	00100713          	li	a4,1
10001e2c:	00e7a023          	sw	a4,0(a5)
10001e30:	300007b7          	lui	a5,0x30000
10001e34:	00878793          	addi	a5,a5,8 # 30000008 <_etext+0x1fffd768>
10001e38:	0007a783          	lw	a5,0(a5)
10001e3c:	fef42423          	sw	a5,-24(s0)
10001e40:	fe842703          	lw	a4,-24(s0)
10001e44:	000407b7          	lui	a5,0x40
10001e48:	00f70663          	beq	a4,a5,10001e54 <CGRA_load_bs+0xed4>
10001e4c:	00100793          	li	a5,1
10001e50:	fef42623          	sw	a5,-20(s0)
10001e54:	300007b7          	lui	a5,0x30000
10001e58:	010a0737          	lui	a4,0x10a0
10001e5c:	10170713          	addi	a4,a4,257 # 10a0101 <_edata+0xa0101>
10001e60:	00e7a023          	sw	a4,0(a5) # 30000000 <_etext+0x1fffd760>
10001e64:	300007b7          	lui	a5,0x30000
10001e68:	01078793          	addi	a5,a5,16 # 30000010 <_etext+0x1fffd770>
10001e6c:	00100713          	li	a4,1
10001e70:	00e7a023          	sw	a4,0(a5)
10001e74:	300007b7          	lui	a5,0x30000
10001e78:	00878793          	addi	a5,a5,8 # 30000008 <_etext+0x1fffd768>
10001e7c:	0007a783          	lw	a5,0(a5)
10001e80:	fef42423          	sw	a5,-24(s0)
10001e84:	fe842703          	lw	a4,-24(s0)
10001e88:	20000793          	li	a5,512
10001e8c:	00f70663          	beq	a4,a5,10001e98 <CGRA_load_bs+0xf18>
10001e90:	00100793          	li	a5,1
10001e94:	fef42623          	sw	a5,-20(s0)
10001e98:	300007b7          	lui	a5,0x30000
10001e9c:	05000737          	lui	a4,0x5000
10001ea0:	20170713          	addi	a4,a4,513 # 5000201 <_edata+0x4000201>
10001ea4:	00e7a023          	sw	a4,0(a5) # 30000000 <_etext+0x1fffd760>
10001ea8:	300007b7          	lui	a5,0x30000
10001eac:	01078793          	addi	a5,a5,16 # 30000010 <_etext+0x1fffd770>
10001eb0:	00100713          	li	a4,1
10001eb4:	00e7a023          	sw	a4,0(a5)
10001eb8:	300007b7          	lui	a5,0x30000
10001ebc:	00878793          	addi	a5,a5,8 # 30000008 <_etext+0x1fffd768>
10001ec0:	0007a783          	lw	a5,0(a5)
10001ec4:	fef42423          	sw	a5,-24(s0)
10001ec8:	fe842703          	lw	a4,-24(s0)
10001ecc:	00100793          	li	a5,1
10001ed0:	00f70663          	beq	a4,a5,10001edc <CGRA_load_bs+0xf5c>
10001ed4:	00100793          	li	a5,1
10001ed8:	fef42623          	sw	a5,-20(s0)
10001edc:	300007b7          	lui	a5,0x30000
10001ee0:	01000737          	lui	a4,0x1000
10001ee4:	20170713          	addi	a4,a4,513 # 1000201 <_edata+0x201>
10001ee8:	00e7a023          	sw	a4,0(a5) # 30000000 <_etext+0x1fffd760>
10001eec:	300007b7          	lui	a5,0x30000
10001ef0:	01078793          	addi	a5,a5,16 # 30000010 <_etext+0x1fffd770>
10001ef4:	00100713          	li	a4,1
10001ef8:	00e7a023          	sw	a4,0(a5)
10001efc:	300007b7          	lui	a5,0x30000
10001f00:	00878793          	addi	a5,a5,8 # 30000008 <_etext+0x1fffd768>
10001f04:	0007a783          	lw	a5,0(a5)
10001f08:	fef42423          	sw	a5,-24(s0)
10001f0c:	fe842703          	lw	a4,-24(s0)
10001f10:	03c00793          	li	a5,60
10001f14:	00f70663          	beq	a4,a5,10001f20 <CGRA_load_bs+0xfa0>
10001f18:	00100793          	li	a5,1
10001f1c:	fef42623          	sw	a5,-20(s0)
10001f20:	300007b7          	lui	a5,0x30000
10001f24:	04000737          	lui	a4,0x4000
10001f28:	20170713          	addi	a4,a4,513 # 4000201 <_edata+0x3000201>
10001f2c:	00e7a023          	sw	a4,0(a5) # 30000000 <_etext+0x1fffd760>
10001f30:	300007b7          	lui	a5,0x30000
10001f34:	01078793          	addi	a5,a5,16 # 30000010 <_etext+0x1fffd770>
10001f38:	00100713          	li	a4,1
10001f3c:	00e7a023          	sw	a4,0(a5)
10001f40:	300007b7          	lui	a5,0x30000
10001f44:	00878793          	addi	a5,a5,8 # 30000008 <_etext+0x1fffd768>
10001f48:	0007a783          	lw	a5,0(a5)
10001f4c:	fef42423          	sw	a5,-24(s0)
10001f50:	fe842703          	lw	a4,-24(s0)
10001f54:	000107b7          	lui	a5,0x10
10001f58:	08078793          	addi	a5,a5,128 # 10080 <_edata-0xfeff80>
10001f5c:	00f70663          	beq	a4,a5,10001f68 <CGRA_load_bs+0xfe8>
10001f60:	00100793          	li	a5,1
10001f64:	fef42623          	sw	a5,-20(s0)
10001f68:	300007b7          	lui	a5,0x30000
10001f6c:	20100713          	li	a4,513
10001f70:	00e7a023          	sw	a4,0(a5) # 30000000 <_etext+0x1fffd760>
10001f74:	300007b7          	lui	a5,0x30000
10001f78:	01078793          	addi	a5,a5,16 # 30000010 <_etext+0x1fffd770>
10001f7c:	00100713          	li	a4,1
10001f80:	00e7a023          	sw	a4,0(a5)
10001f84:	300007b7          	lui	a5,0x30000
10001f88:	00878793          	addi	a5,a5,8 # 30000008 <_etext+0x1fffd768>
10001f8c:	0007a783          	lw	a5,0(a5)
10001f90:	fef42423          	sw	a5,-24(s0)
10001f94:	fe842703          	lw	a4,-24(s0)
10001f98:	000107b7          	lui	a5,0x10
10001f9c:	88078793          	addi	a5,a5,-1920 # f880 <_edata-0xff0780>
10001fa0:	00f70663          	beq	a4,a5,10001fac <CGRA_load_bs+0x102c>
10001fa4:	00100793          	li	a5,1
10001fa8:	fef42623          	sw	a5,-20(s0)
10001fac:	300007b7          	lui	a5,0x30000
10001fb0:	03000737          	lui	a4,0x3000
10001fb4:	20170713          	addi	a4,a4,513 # 3000201 <_edata+0x2000201>
10001fb8:	00e7a023          	sw	a4,0(a5) # 30000000 <_etext+0x1fffd760>
10001fbc:	300007b7          	lui	a5,0x30000
10001fc0:	01078793          	addi	a5,a5,16 # 30000010 <_etext+0x1fffd770>
10001fc4:	00100713          	li	a4,1
10001fc8:	00e7a023          	sw	a4,0(a5)
10001fcc:	300007b7          	lui	a5,0x30000
10001fd0:	00878793          	addi	a5,a5,8 # 30000008 <_etext+0x1fffd768>
10001fd4:	0007a783          	lw	a5,0(a5)
10001fd8:	fef42423          	sw	a5,-24(s0)
10001fdc:	fe842703          	lw	a4,-24(s0)
10001fe0:	000107b7          	lui	a5,0x10
10001fe4:	00f70663          	beq	a4,a5,10001ff0 <CGRA_load_bs+0x1070>
10001fe8:	00100793          	li	a5,1
10001fec:	fef42623          	sw	a5,-20(s0)
10001ff0:	300007b7          	lui	a5,0x30000
10001ff4:	51000737          	lui	a4,0x51000
10001ff8:	20170713          	addi	a4,a4,513 # 51000201 <_etext+0x40ffd961>
10001ffc:	00e7a023          	sw	a4,0(a5) # 30000000 <_etext+0x1fffd760>
10002000:	300007b7          	lui	a5,0x30000
10002004:	01078793          	addi	a5,a5,16 # 30000010 <_etext+0x1fffd770>
10002008:	00100713          	li	a4,1
1000200c:	00e7a023          	sw	a4,0(a5)
10002010:	300007b7          	lui	a5,0x30000
10002014:	00878793          	addi	a5,a5,8 # 30000008 <_etext+0x1fffd768>
10002018:	0007a783          	lw	a5,0(a5)
1000201c:	fef42423          	sw	a5,-24(s0)
10002020:	fe842703          	lw	a4,-24(s0)
10002024:	40000793          	li	a5,1024
10002028:	00f70663          	beq	a4,a5,10002034 <CGRA_load_bs+0x10b4>
1000202c:	00100793          	li	a5,1
10002030:	fef42623          	sw	a5,-20(s0)
10002034:	300007b7          	lui	a5,0x30000
10002038:	4f000737          	lui	a4,0x4f000
1000203c:	00170713          	addi	a4,a4,1 # 4f000001 <_etext+0x3effd761>
10002040:	00e7a023          	sw	a4,0(a5) # 30000000 <_etext+0x1fffd760>
10002044:	300007b7          	lui	a5,0x30000
10002048:	01078793          	addi	a5,a5,16 # 30000010 <_etext+0x1fffd770>
1000204c:	00100713          	li	a4,1
10002050:	00e7a023          	sw	a4,0(a5)
10002054:	300007b7          	lui	a5,0x30000
10002058:	00878793          	addi	a5,a5,8 # 30000008 <_etext+0x1fffd768>
1000205c:	0007a783          	lw	a5,0(a5)
10002060:	fef42423          	sw	a5,-24(s0)
10002064:	fe842703          	lw	a4,-24(s0)
10002068:	001007b7          	lui	a5,0x100
1000206c:	00f70663          	beq	a4,a5,10002078 <CGRA_load_bs+0x10f8>
10002070:	00100793          	li	a5,1
10002074:	fef42623          	sw	a5,-20(s0)
10002078:	300007b7          	lui	a5,0x30000
1000207c:	38000737          	lui	a4,0x38000
10002080:	00170713          	addi	a4,a4,1 # 38000001 <_etext+0x27ffd761>
10002084:	00e7a023          	sw	a4,0(a5) # 30000000 <_etext+0x1fffd760>
10002088:	300007b7          	lui	a5,0x30000
1000208c:	01078793          	addi	a5,a5,16 # 30000010 <_etext+0x1fffd770>
10002090:	00100713          	li	a4,1
10002094:	00e7a023          	sw	a4,0(a5)
10002098:	300007b7          	lui	a5,0x30000
1000209c:	00878793          	addi	a5,a5,8 # 30000008 <_etext+0x1fffd768>
100020a0:	0007a783          	lw	a5,0(a5)
100020a4:	fef42423          	sw	a5,-24(s0)
100020a8:	fe842703          	lw	a4,-24(s0)
100020ac:	00200793          	li	a5,2
100020b0:	00f70663          	beq	a4,a5,100020bc <CGRA_load_bs+0x113c>
100020b4:	00100793          	li	a5,1
100020b8:	fef42623          	sw	a5,-20(s0)
100020bc:	300007b7          	lui	a5,0x30000
100020c0:	2d000737          	lui	a4,0x2d000
100020c4:	00170713          	addi	a4,a4,1 # 2d000001 <_etext+0x1cffd761>
100020c8:	00e7a023          	sw	a4,0(a5) # 30000000 <_etext+0x1fffd760>
100020cc:	300007b7          	lui	a5,0x30000
100020d0:	01078793          	addi	a5,a5,16 # 30000010 <_etext+0x1fffd770>
100020d4:	00100713          	li	a4,1
100020d8:	00e7a023          	sw	a4,0(a5)
100020dc:	300007b7          	lui	a5,0x30000
100020e0:	00878793          	addi	a5,a5,8 # 30000008 <_etext+0x1fffd768>
100020e4:	0007a783          	lw	a5,0(a5)
100020e8:	fef42423          	sw	a5,-24(s0)
100020ec:	fe842703          	lw	a4,-24(s0)
100020f0:	00100793          	li	a5,1
100020f4:	00f70663          	beq	a4,a5,10002100 <CGRA_load_bs+0x1180>
100020f8:	00100793          	li	a5,1
100020fc:	fef42623          	sw	a5,-20(s0)
10002100:	300007b7          	lui	a5,0x30000
10002104:	30000737          	lui	a4,0x30000
10002108:	00170713          	addi	a4,a4,1 # 30000001 <_etext+0x1fffd761>
1000210c:	00e7a023          	sw	a4,0(a5) # 30000000 <_etext+0x1fffd760>
10002110:	300007b7          	lui	a5,0x30000
10002114:	01078793          	addi	a5,a5,16 # 30000010 <_etext+0x1fffd770>
10002118:	00100713          	li	a4,1
1000211c:	00e7a023          	sw	a4,0(a5)
10002120:	300007b7          	lui	a5,0x30000
10002124:	00878793          	addi	a5,a5,8 # 30000008 <_etext+0x1fffd768>
10002128:	0007a783          	lw	a5,0(a5)
1000212c:	fef42423          	sw	a5,-24(s0)
10002130:	fe842703          	lw	a4,-24(s0)
10002134:	000fe7b7          	lui	a5,0xfe
10002138:	10078793          	addi	a5,a5,256 # fe100 <_edata-0xf01f00>
1000213c:	00f70663          	beq	a4,a5,10002148 <CGRA_load_bs+0x11c8>
10002140:	00100793          	li	a5,1
10002144:	fef42623          	sw	a5,-20(s0)
10002148:	300007b7          	lui	a5,0x30000
1000214c:	37000737          	lui	a4,0x37000
10002150:	00170713          	addi	a4,a4,1 # 37000001 <_etext+0x26ffd761>
10002154:	00e7a023          	sw	a4,0(a5) # 30000000 <_etext+0x1fffd760>
10002158:	300007b7          	lui	a5,0x30000
1000215c:	01078793          	addi	a5,a5,16 # 30000010 <_etext+0x1fffd770>
10002160:	00100713          	li	a4,1
10002164:	00e7a023          	sw	a4,0(a5)
10002168:	300007b7          	lui	a5,0x30000
1000216c:	00878793          	addi	a5,a5,8 # 30000008 <_etext+0x1fffd768>
10002170:	0007a783          	lw	a5,0(a5)
10002174:	fef42423          	sw	a5,-24(s0)
10002178:	fe842703          	lw	a4,-24(s0)
1000217c:	00100793          	li	a5,1
10002180:	00f70663          	beq	a4,a5,1000218c <CGRA_load_bs+0x120c>
10002184:	00100793          	li	a5,1
10002188:	fef42623          	sw	a5,-20(s0)
1000218c:	300007b7          	lui	a5,0x30000
10002190:	49000737          	lui	a4,0x49000
10002194:	00170713          	addi	a4,a4,1 # 49000001 <_etext+0x38ffd761>
10002198:	00e7a023          	sw	a4,0(a5) # 30000000 <_etext+0x1fffd760>
1000219c:	300007b7          	lui	a5,0x30000
100021a0:	01078793          	addi	a5,a5,16 # 30000010 <_etext+0x1fffd770>
100021a4:	00100713          	li	a4,1
100021a8:	00e7a023          	sw	a4,0(a5)
100021ac:	300007b7          	lui	a5,0x30000
100021b0:	00878793          	addi	a5,a5,8 # 30000008 <_etext+0x1fffd768>
100021b4:	0007a783          	lw	a5,0(a5)
100021b8:	fef42423          	sw	a5,-24(s0)
100021bc:	fe842703          	lw	a4,-24(s0)
100021c0:	00100793          	li	a5,1
100021c4:	00f70663          	beq	a4,a5,100021d0 <CGRA_load_bs+0x1250>
100021c8:	00100793          	li	a5,1
100021cc:	fef42623          	sw	a5,-20(s0)
100021d0:	300007b7          	lui	a5,0x30000
100021d4:	46000737          	lui	a4,0x46000
100021d8:	00170713          	addi	a4,a4,1 # 46000001 <_etext+0x35ffd761>
100021dc:	00e7a023          	sw	a4,0(a5) # 30000000 <_etext+0x1fffd760>
100021e0:	300007b7          	lui	a5,0x30000
100021e4:	01078793          	addi	a5,a5,16 # 30000010 <_etext+0x1fffd770>
100021e8:	00100713          	li	a4,1
100021ec:	00e7a023          	sw	a4,0(a5)
100021f0:	300007b7          	lui	a5,0x30000
100021f4:	00878793          	addi	a5,a5,8 # 30000008 <_etext+0x1fffd768>
100021f8:	0007a783          	lw	a5,0(a5)
100021fc:	fef42423          	sw	a5,-24(s0)
10002200:	fe842703          	lw	a4,-24(s0)
10002204:	11000793          	li	a5,272
10002208:	00f70663          	beq	a4,a5,10002214 <CGRA_load_bs+0x1294>
1000220c:	00100793          	li	a5,1
10002210:	fef42623          	sw	a5,-20(s0)
10002214:	300007b7          	lui	a5,0x30000
10002218:	40000737          	lui	a4,0x40000
1000221c:	00170713          	addi	a4,a4,1 # 40000001 <_etext+0x2fffd761>
10002220:	00e7a023          	sw	a4,0(a5) # 30000000 <_etext+0x1fffd760>
10002224:	300007b7          	lui	a5,0x30000
10002228:	01078793          	addi	a5,a5,16 # 30000010 <_etext+0x1fffd770>
1000222c:	00100713          	li	a4,1
10002230:	00e7a023          	sw	a4,0(a5)
10002234:	300007b7          	lui	a5,0x30000
10002238:	00878793          	addi	a5,a5,8 # 30000008 <_etext+0x1fffd768>
1000223c:	0007a783          	lw	a5,0(a5)
10002240:	fef42423          	sw	a5,-24(s0)
10002244:	fe842703          	lw	a4,-24(s0)
10002248:	0fe00793          	li	a5,254
1000224c:	00f70663          	beq	a4,a5,10002258 <CGRA_load_bs+0x12d8>
10002250:	00100793          	li	a5,1
10002254:	fef42623          	sw	a5,-20(s0)
10002258:	300007b7          	lui	a5,0x30000
1000225c:	48000737          	lui	a4,0x48000
10002260:	00170713          	addi	a4,a4,1 # 48000001 <_etext+0x37ffd761>
10002264:	00e7a023          	sw	a4,0(a5) # 30000000 <_etext+0x1fffd760>
10002268:	300007b7          	lui	a5,0x30000
1000226c:	01078793          	addi	a5,a5,16 # 30000010 <_etext+0x1fffd770>
10002270:	00100713          	li	a4,1
10002274:	00e7a023          	sw	a4,0(a5)
10002278:	300007b7          	lui	a5,0x30000
1000227c:	00878793          	addi	a5,a5,8 # 30000008 <_etext+0x1fffd768>
10002280:	0007a783          	lw	a5,0(a5)
10002284:	fef42423          	sw	a5,-24(s0)
10002288:	fe842703          	lw	a4,-24(s0)
1000228c:	000107b7          	lui	a5,0x10
10002290:	00278793          	addi	a5,a5,2 # 10002 <_edata-0xfefffe>
10002294:	00f70663          	beq	a4,a5,100022a0 <CGRA_load_bs+0x1320>
10002298:	00100793          	li	a5,1
1000229c:	fef42623          	sw	a5,-20(s0)
100022a0:	300007b7          	lui	a5,0x30000
100022a4:	3f000737          	lui	a4,0x3f000
100022a8:	00170713          	addi	a4,a4,1 # 3f000001 <_etext+0x2effd761>
100022ac:	00e7a023          	sw	a4,0(a5) # 30000000 <_etext+0x1fffd760>
100022b0:	300007b7          	lui	a5,0x30000
100022b4:	01078793          	addi	a5,a5,16 # 30000010 <_etext+0x1fffd770>
100022b8:	00100713          	li	a4,1
100022bc:	00e7a023          	sw	a4,0(a5)
100022c0:	300007b7          	lui	a5,0x30000
100022c4:	00878793          	addi	a5,a5,8 # 30000008 <_etext+0x1fffd768>
100022c8:	0007a783          	lw	a5,0(a5)
100022cc:	fef42423          	sw	a5,-24(s0)
100022d0:	fe842703          	lw	a4,-24(s0)
100022d4:	00200793          	li	a5,2
100022d8:	00f70663          	beq	a4,a5,100022e4 <CGRA_load_bs+0x1364>
100022dc:	00100793          	li	a5,1
100022e0:	fef42623          	sw	a5,-20(s0)
100022e4:	300007b7          	lui	a5,0x30000
100022e8:	47000737          	lui	a4,0x47000
100022ec:	00170713          	addi	a4,a4,1 # 47000001 <_etext+0x36ffd761>
100022f0:	00e7a023          	sw	a4,0(a5) # 30000000 <_etext+0x1fffd760>
100022f4:	300007b7          	lui	a5,0x30000
100022f8:	01078793          	addi	a5,a5,16 # 30000010 <_etext+0x1fffd770>
100022fc:	00100713          	li	a4,1
10002300:	00e7a023          	sw	a4,0(a5)
10002304:	300007b7          	lui	a5,0x30000
10002308:	00878793          	addi	a5,a5,8 # 30000008 <_etext+0x1fffd768>
1000230c:	0007a783          	lw	a5,0(a5)
10002310:	fef42423          	sw	a5,-24(s0)
10002314:	fe842703          	lw	a4,-24(s0)
10002318:	010007b7          	lui	a5,0x1000
1000231c:	00f70663          	beq	a4,a5,10002328 <CGRA_load_bs+0x13a8>
10002320:	00100793          	li	a5,1
10002324:	fef42623          	sw	a5,-20(s0)
10002328:	300007b7          	lui	a5,0x30000
1000232c:	51000737          	lui	a4,0x51000
10002330:	00170713          	addi	a4,a4,1 # 51000001 <_etext+0x40ffd761>
10002334:	00e7a023          	sw	a4,0(a5) # 30000000 <_etext+0x1fffd760>
10002338:	300007b7          	lui	a5,0x30000
1000233c:	01078793          	addi	a5,a5,16 # 30000010 <_etext+0x1fffd770>
10002340:	00100713          	li	a4,1
10002344:	00e7a023          	sw	a4,0(a5)
10002348:	300007b7          	lui	a5,0x30000
1000234c:	00878793          	addi	a5,a5,8 # 30000008 <_etext+0x1fffd768>
10002350:	0007a783          	lw	a5,0(a5)
10002354:	fef42423          	sw	a5,-24(s0)
10002358:	fe842703          	lw	a4,-24(s0)
1000235c:	40000793          	li	a5,1024
10002360:	00f70663          	beq	a4,a5,1000236c <CGRA_load_bs+0x13ec>
10002364:	00100793          	li	a5,1
10002368:	fef42623          	sw	a5,-20(s0)
1000236c:	300007b7          	lui	a5,0x30000
10002370:	1b000737          	lui	a4,0x1b000
10002374:	10170713          	addi	a4,a4,257 # 1b000101 <_etext+0xaffd861>
10002378:	00e7a023          	sw	a4,0(a5) # 30000000 <_etext+0x1fffd760>
1000237c:	300007b7          	lui	a5,0x30000
10002380:	01078793          	addi	a5,a5,16 # 30000010 <_etext+0x1fffd770>
10002384:	00100713          	li	a4,1
10002388:	00e7a023          	sw	a4,0(a5)
1000238c:	300007b7          	lui	a5,0x30000
10002390:	00878793          	addi	a5,a5,8 # 30000008 <_etext+0x1fffd768>
10002394:	0007a783          	lw	a5,0(a5)
10002398:	fef42423          	sw	a5,-24(s0)
1000239c:	fe842703          	lw	a4,-24(s0)
100023a0:	00200793          	li	a5,2
100023a4:	00f70663          	beq	a4,a5,100023b0 <CGRA_load_bs+0x1430>
100023a8:	00100793          	li	a5,1
100023ac:	fef42623          	sw	a5,-20(s0)
100023b0:	300007b7          	lui	a5,0x30000
100023b4:	29000737          	lui	a4,0x29000
100023b8:	10170713          	addi	a4,a4,257 # 29000101 <_etext+0x18ffd861>
100023bc:	00e7a023          	sw	a4,0(a5) # 30000000 <_etext+0x1fffd760>
100023c0:	300007b7          	lui	a5,0x30000
100023c4:	01078793          	addi	a5,a5,16 # 30000010 <_etext+0x1fffd770>
100023c8:	00100713          	li	a4,1
100023cc:	00e7a023          	sw	a4,0(a5)
100023d0:	300007b7          	lui	a5,0x30000
100023d4:	00878793          	addi	a5,a5,8 # 30000008 <_etext+0x1fffd768>
100023d8:	0007a783          	lw	a5,0(a5)
100023dc:	fef42423          	sw	a5,-24(s0)
100023e0:	fe842703          	lw	a4,-24(s0)
100023e4:	20000793          	li	a5,512
100023e8:	00f70663          	beq	a4,a5,100023f4 <CGRA_load_bs+0x1474>
100023ec:	00100793          	li	a5,1
100023f0:	fef42623          	sw	a5,-20(s0)
100023f4:	300007b7          	lui	a5,0x30000
100023f8:	22000737          	lui	a4,0x22000
100023fc:	10170713          	addi	a4,a4,257 # 22000101 <_etext+0x11ffd861>
10002400:	00e7a023          	sw	a4,0(a5) # 30000000 <_etext+0x1fffd760>
10002404:	300007b7          	lui	a5,0x30000
10002408:	01078793          	addi	a5,a5,16 # 30000010 <_etext+0x1fffd770>
1000240c:	00100713          	li	a4,1
10002410:	00e7a023          	sw	a4,0(a5)
10002414:	300007b7          	lui	a5,0x30000
10002418:	00878793          	addi	a5,a5,8 # 30000008 <_etext+0x1fffd768>
1000241c:	0007a783          	lw	a5,0(a5)
10002420:	fef42423          	sw	a5,-24(s0)
10002424:	fe842703          	lw	a4,-24(s0)
10002428:	000017b7          	lui	a5,0x1
1000242c:	fe178793          	addi	a5,a5,-31 # fe1 <_edata-0xfff01f>
10002430:	00f70663          	beq	a4,a5,1000243c <CGRA_load_bs+0x14bc>
10002434:	00100793          	li	a5,1
10002438:	fef42623          	sw	a5,-20(s0)
1000243c:	300007b7          	lui	a5,0x30000
10002440:	07000737          	lui	a4,0x7000
10002444:	10170713          	addi	a4,a4,257 # 7000101 <_edata+0x6000101>
10002448:	00e7a023          	sw	a4,0(a5) # 30000000 <_etext+0x1fffd760>
1000244c:	300007b7          	lui	a5,0x30000
10002450:	01078793          	addi	a5,a5,16 # 30000010 <_etext+0x1fffd770>
10002454:	00100713          	li	a4,1
10002458:	00e7a023          	sw	a4,0(a5)
1000245c:	300007b7          	lui	a5,0x30000
10002460:	00878793          	addi	a5,a5,8 # 30000008 <_etext+0x1fffd768>
10002464:	0007a783          	lw	a5,0(a5)
10002468:	fef42423          	sw	a5,-24(s0)
1000246c:	fe842703          	lw	a4,-24(s0)
10002470:	001007b7          	lui	a5,0x100
10002474:	00f70663          	beq	a4,a5,10002480 <CGRA_load_bs+0x1500>
10002478:	00100793          	li	a5,1
1000247c:	fef42623          	sw	a5,-20(s0)
10002480:	300007b7          	lui	a5,0x30000
10002484:	1a000737          	lui	a4,0x1a000
10002488:	10170713          	addi	a4,a4,257 # 1a000101 <_etext+0x9ffd861>
1000248c:	00e7a023          	sw	a4,0(a5) # 30000000 <_etext+0x1fffd760>
10002490:	300007b7          	lui	a5,0x30000
10002494:	01078793          	addi	a5,a5,16 # 30000010 <_etext+0x1fffd770>
10002498:	00100713          	li	a4,1
1000249c:	00e7a023          	sw	a4,0(a5)
100024a0:	300007b7          	lui	a5,0x30000
100024a4:	00878793          	addi	a5,a5,8 # 30000008 <_etext+0x1fffd768>
100024a8:	0007a783          	lw	a5,0(a5)
100024ac:	fef42423          	sw	a5,-24(s0)
100024b0:	fe842703          	lw	a4,-24(s0)
100024b4:	00900793          	li	a5,9
100024b8:	00f70663          	beq	a4,a5,100024c4 <CGRA_load_bs+0x1544>
100024bc:	00100793          	li	a5,1
100024c0:	fef42623          	sw	a5,-20(s0)
100024c4:	300007b7          	lui	a5,0x30000
100024c8:	0c000737          	lui	a4,0xc000
100024cc:	10170713          	addi	a4,a4,257 # c000101 <_edata+0xb000101>
100024d0:	00e7a023          	sw	a4,0(a5) # 30000000 <_etext+0x1fffd760>
100024d4:	300007b7          	lui	a5,0x30000
100024d8:	01078793          	addi	a5,a5,16 # 30000010 <_etext+0x1fffd770>
100024dc:	00100713          	li	a4,1
100024e0:	00e7a023          	sw	a4,0(a5)
100024e4:	300007b7          	lui	a5,0x30000
100024e8:	00878793          	addi	a5,a5,8 # 30000008 <_etext+0x1fffd768>
100024ec:	0007a783          	lw	a5,0(a5)
100024f0:	fef42423          	sw	a5,-24(s0)
100024f4:	fe842703          	lw	a4,-24(s0)
100024f8:	000107b7          	lui	a5,0x10
100024fc:	00178793          	addi	a5,a5,1 # 10001 <_edata-0xfeffff>
10002500:	00f70663          	beq	a4,a5,1000250c <CGRA_load_bs+0x158c>
10002504:	00100793          	li	a5,1
10002508:	fef42623          	sw	a5,-20(s0)
1000250c:	300007b7          	lui	a5,0x30000
10002510:	09000737          	lui	a4,0x9000
10002514:	10170713          	addi	a4,a4,257 # 9000101 <_edata+0x8000101>
10002518:	00e7a023          	sw	a4,0(a5) # 30000000 <_etext+0x1fffd760>
1000251c:	300007b7          	lui	a5,0x30000
10002520:	01078793          	addi	a5,a5,16 # 30000010 <_etext+0x1fffd770>
10002524:	00100713          	li	a4,1
10002528:	00e7a023          	sw	a4,0(a5)
1000252c:	300007b7          	lui	a5,0x30000
10002530:	00878793          	addi	a5,a5,8 # 30000008 <_etext+0x1fffd768>
10002534:	0007a783          	lw	a5,0(a5)
10002538:	fef42423          	sw	a5,-24(s0)
1000253c:	fe842703          	lw	a4,-24(s0)
10002540:	000117b7          	lui	a5,0x11
10002544:	00f70663          	beq	a4,a5,10002550 <CGRA_load_bs+0x15d0>
10002548:	00100793          	li	a5,1
1000254c:	fef42623          	sw	a5,-20(s0)
10002550:	300007b7          	lui	a5,0x30000
10002554:	14000737          	lui	a4,0x14000
10002558:	10170713          	addi	a4,a4,257 # 14000101 <_etext+0x3ffd861>
1000255c:	00e7a023          	sw	a4,0(a5) # 30000000 <_etext+0x1fffd760>
10002560:	300007b7          	lui	a5,0x30000
10002564:	01078793          	addi	a5,a5,16 # 30000010 <_etext+0x1fffd770>
10002568:	00100713          	li	a4,1
1000256c:	00e7a023          	sw	a4,0(a5)
10002570:	300007b7          	lui	a5,0x30000
10002574:	00878793          	addi	a5,a5,8 # 30000008 <_etext+0x1fffd768>
10002578:	0007a783          	lw	a5,0(a5)
1000257c:	fef42423          	sw	a5,-24(s0)
10002580:	fe842703          	lw	a4,-24(s0)
10002584:	0fe00793          	li	a5,254
10002588:	00f70663          	beq	a4,a5,10002594 <CGRA_load_bs+0x1614>
1000258c:	00100793          	li	a5,1
10002590:	fef42623          	sw	a5,-20(s0)
10002594:	300007b7          	lui	a5,0x30000
10002598:	13000737          	lui	a4,0x13000
1000259c:	10170713          	addi	a4,a4,257 # 13000101 <_etext+0x2ffd861>
100025a0:	00e7a023          	sw	a4,0(a5) # 30000000 <_etext+0x1fffd760>
100025a4:	300007b7          	lui	a5,0x30000
100025a8:	01078793          	addi	a5,a5,16 # 30000010 <_etext+0x1fffd770>
100025ac:	00100713          	li	a4,1
100025b0:	00e7a023          	sw	a4,0(a5)
100025b4:	300007b7          	lui	a5,0x30000
100025b8:	00878793          	addi	a5,a5,8 # 30000008 <_etext+0x1fffd768>
100025bc:	0007a783          	lw	a5,0(a5)
100025c0:	fef42423          	sw	a5,-24(s0)
100025c4:	fe842703          	lw	a4,-24(s0)
100025c8:	00200793          	li	a5,2
100025cc:	00f70663          	beq	a4,a5,100025d8 <CGRA_load_bs+0x1658>
100025d0:	00100793          	li	a5,1
100025d4:	fef42623          	sw	a5,-20(s0)
100025d8:	300007b7          	lui	a5,0x30000
100025dc:	0b000737          	lui	a4,0xb000
100025e0:	10170713          	addi	a4,a4,257 # b000101 <_edata+0xa000101>
100025e4:	00e7a023          	sw	a4,0(a5) # 30000000 <_etext+0x1fffd760>
100025e8:	300007b7          	lui	a5,0x30000
100025ec:	01078793          	addi	a5,a5,16 # 30000010 <_etext+0x1fffd770>
100025f0:	00100713          	li	a4,1
100025f4:	00e7a023          	sw	a4,0(a5)
100025f8:	300007b7          	lui	a5,0x30000
100025fc:	00878793          	addi	a5,a5,8 # 30000008 <_etext+0x1fffd768>
10002600:	0007a783          	lw	a5,0(a5)
10002604:	fef42423          	sw	a5,-24(s0)
10002608:	fe842703          	lw	a4,-24(s0)
1000260c:	00500793          	li	a5,5
10002610:	00f70663          	beq	a4,a5,1000261c <CGRA_load_bs+0x169c>
10002614:	00100793          	li	a5,1
10002618:	fef42623          	sw	a5,-20(s0)
1000261c:	300007b7          	lui	a5,0x30000
10002620:	51000737          	lui	a4,0x51000
10002624:	10170713          	addi	a4,a4,257 # 51000101 <_etext+0x40ffd861>
10002628:	00e7a023          	sw	a4,0(a5) # 30000000 <_etext+0x1fffd760>
1000262c:	300007b7          	lui	a5,0x30000
10002630:	01078793          	addi	a5,a5,16 # 30000010 <_etext+0x1fffd770>
10002634:	00100713          	li	a4,1
10002638:	00e7a023          	sw	a4,0(a5)
1000263c:	300007b7          	lui	a5,0x30000
10002640:	00878793          	addi	a5,a5,8 # 30000008 <_etext+0x1fffd768>
10002644:	0007a783          	lw	a5,0(a5)
10002648:	fef42423          	sw	a5,-24(s0)
1000264c:	fe842703          	lw	a4,-24(s0)
10002650:	40000793          	li	a5,1024
10002654:	00f70663          	beq	a4,a5,10002660 <CGRA_load_bs+0x16e0>
10002658:	00100793          	li	a5,1
1000265c:	fef42623          	sw	a5,-20(s0)
10002660:	300007b7          	lui	a5,0x30000
10002664:	00200713          	li	a4,2
10002668:	00e7a023          	sw	a4,0(a5) # 30000000 <_etext+0x1fffd760>
1000266c:	300007b7          	lui	a5,0x30000
10002670:	01078793          	addi	a5,a5,16 # 30000010 <_etext+0x1fffd770>
10002674:	00100713          	li	a4,1
10002678:	00e7a023          	sw	a4,0(a5)
1000267c:	300007b7          	lui	a5,0x30000
10002680:	00878793          	addi	a5,a5,8 # 30000008 <_etext+0x1fffd768>
10002684:	0007a783          	lw	a5,0(a5)
10002688:	fef42423          	sw	a5,-24(s0)
1000268c:	fe842703          	lw	a4,-24(s0)
10002690:	008007b7          	lui	a5,0x800
10002694:	00f70663          	beq	a4,a5,100026a0 <CGRA_load_bs+0x1720>
10002698:	00100793          	li	a5,1
1000269c:	fef42623          	sw	a5,-20(s0)
100026a0:	300007b7          	lui	a5,0x30000
100026a4:	01000737          	lui	a4,0x1000
100026a8:	00270713          	addi	a4,a4,2 # 1000002 <_edata+0x2>
100026ac:	00e7a023          	sw	a4,0(a5) # 30000000 <_etext+0x1fffd760>
100026b0:	300007b7          	lui	a5,0x30000
100026b4:	01078793          	addi	a5,a5,16 # 30000010 <_etext+0x1fffd770>
100026b8:	00100713          	li	a4,1
100026bc:	00e7a023          	sw	a4,0(a5)
100026c0:	300007b7          	lui	a5,0x30000
100026c4:	00878793          	addi	a5,a5,8 # 30000008 <_etext+0x1fffd768>
100026c8:	0007a783          	lw	a5,0(a5)
100026cc:	fef42423          	sw	a5,-24(s0)
100026d0:	fe842703          	lw	a4,-24(s0)
100026d4:	480007b7          	lui	a5,0x48000
100026d8:	20078793          	addi	a5,a5,512 # 48000200 <_etext+0x37ffd960>
100026dc:	00f70663          	beq	a4,a5,100026e8 <CGRA_load_bs+0x1768>
100026e0:	00100793          	li	a5,1
100026e4:	fef42623          	sw	a5,-20(s0)
100026e8:	300007b7          	lui	a5,0x30000
100026ec:	02000737          	lui	a4,0x2000
100026f0:	00270713          	addi	a4,a4,2 # 2000002 <_edata+0x1000002>
100026f4:	00e7a023          	sw	a4,0(a5) # 30000000 <_etext+0x1fffd760>
100026f8:	300007b7          	lui	a5,0x30000
100026fc:	01078793          	addi	a5,a5,16 # 30000010 <_etext+0x1fffd770>
10002700:	00100713          	li	a4,1
10002704:	00e7a023          	sw	a4,0(a5)
10002708:	300007b7          	lui	a5,0x30000
1000270c:	00878793          	addi	a5,a5,8 # 30000008 <_etext+0x1fffd768>
10002710:	0007a783          	lw	a5,0(a5)
10002714:	fef42423          	sw	a5,-24(s0)
10002718:	fe842703          	lw	a4,-24(s0)
1000271c:	00200793          	li	a5,2
10002720:	00f70663          	beq	a4,a5,1000272c <CGRA_load_bs+0x17ac>
10002724:	00100793          	li	a5,1
10002728:	fef42623          	sw	a5,-20(s0)
1000272c:	300007b7          	lui	a5,0x30000
10002730:	10200713          	li	a4,258
10002734:	00e7a023          	sw	a4,0(a5) # 30000000 <_etext+0x1fffd760>
10002738:	300007b7          	lui	a5,0x30000
1000273c:	01078793          	addi	a5,a5,16 # 30000010 <_etext+0x1fffd770>
10002740:	00100713          	li	a4,1
10002744:	00e7a023          	sw	a4,0(a5)
10002748:	300007b7          	lui	a5,0x30000
1000274c:	00878793          	addi	a5,a5,8 # 30000008 <_etext+0x1fffd768>
10002750:	0007a783          	lw	a5,0(a5)
10002754:	fef42423          	sw	a5,-24(s0)
10002758:	fe842703          	lw	a4,-24(s0)
1000275c:	008007b7          	lui	a5,0x800
10002760:	00f70663          	beq	a4,a5,1000276c <CGRA_load_bs+0x17ec>
10002764:	00100793          	li	a5,1
10002768:	fef42623          	sw	a5,-20(s0)
1000276c:	300007b7          	lui	a5,0x30000
10002770:	01000737          	lui	a4,0x1000
10002774:	10270713          	addi	a4,a4,258 # 1000102 <_edata+0x102>
10002778:	00e7a023          	sw	a4,0(a5) # 30000000 <_etext+0x1fffd760>
1000277c:	300007b7          	lui	a5,0x30000
10002780:	01078793          	addi	a5,a5,16 # 30000010 <_etext+0x1fffd770>
10002784:	00100713          	li	a4,1
10002788:	00e7a023          	sw	a4,0(a5)
1000278c:	300007b7          	lui	a5,0x30000
10002790:	00878793          	addi	a5,a5,8 # 30000008 <_etext+0x1fffd768>
10002794:	0007a783          	lw	a5,0(a5)
10002798:	fef42423          	sw	a5,-24(s0)
1000279c:	fe842703          	lw	a4,-24(s0)
100027a0:	480007b7          	lui	a5,0x48000
100027a4:	20078793          	addi	a5,a5,512 # 48000200 <_etext+0x37ffd960>
100027a8:	00f70663          	beq	a4,a5,100027b4 <CGRA_load_bs+0x1834>
100027ac:	00100793          	li	a5,1
100027b0:	fef42623          	sw	a5,-20(s0)
100027b4:	300007b7          	lui	a5,0x30000
100027b8:	02000737          	lui	a4,0x2000
100027bc:	10270713          	addi	a4,a4,258 # 2000102 <_edata+0x1000102>
100027c0:	00e7a023          	sw	a4,0(a5) # 30000000 <_etext+0x1fffd760>
100027c4:	300007b7          	lui	a5,0x30000
100027c8:	01078793          	addi	a5,a5,16 # 30000010 <_etext+0x1fffd770>
100027cc:	00100713          	li	a4,1
100027d0:	00e7a023          	sw	a4,0(a5)
100027d4:	300007b7          	lui	a5,0x30000
100027d8:	00878793          	addi	a5,a5,8 # 30000008 <_etext+0x1fffd768>
100027dc:	0007a783          	lw	a5,0(a5)
100027e0:	fef42423          	sw	a5,-24(s0)
100027e4:	fe842703          	lw	a4,-24(s0)
100027e8:	00200793          	li	a5,2
100027ec:	00f70663          	beq	a4,a5,100027f8 <CGRA_load_bs+0x1878>
100027f0:	00100793          	li	a5,1
100027f4:	fef42623          	sw	a5,-20(s0)
100027f8:	300007b7          	lui	a5,0x30000
100027fc:	20200713          	li	a4,514
10002800:	00e7a023          	sw	a4,0(a5) # 30000000 <_etext+0x1fffd760>
10002804:	300007b7          	lui	a5,0x30000
10002808:	01078793          	addi	a5,a5,16 # 30000010 <_etext+0x1fffd770>
1000280c:	00100713          	li	a4,1
10002810:	00e7a023          	sw	a4,0(a5)
10002814:	300007b7          	lui	a5,0x30000
10002818:	00878793          	addi	a5,a5,8 # 30000008 <_etext+0x1fffd768>
1000281c:	0007a783          	lw	a5,0(a5)
10002820:	fef42423          	sw	a5,-24(s0)
10002824:	fe842703          	lw	a4,-24(s0)
10002828:	001c87b7          	lui	a5,0x1c8
1000282c:	e0078793          	addi	a5,a5,-512 # 1c7e00 <_edata-0xe38200>
10002830:	00f70663          	beq	a4,a5,1000283c <CGRA_load_bs+0x18bc>
10002834:	00100793          	li	a5,1
10002838:	fef42623          	sw	a5,-20(s0)
1000283c:	fec42783          	lw	a5,-20(s0)
10002840:	00078513          	mv	a0,a5
10002844:	02c12403          	lw	s0,44(sp)
10002848:	03010113          	addi	sp,sp,48
1000284c:	00008067          	ret
10002850:	3130                	fld	fa2,96(a0)
10002852:	3332                	fld	ft6,296(sp)
10002854:	3534                	fld	fa3,104(a0)
10002856:	3736                	fld	fa4,360(sp)
10002858:	3938                	fld	fa4,112(a0)
1000285a:	6261                	lui	tp,0x18
1000285c:	66656463          	bltu	a0,t1,10002ec4 <_etext+0x624>
10002860:	0000                	unimp
10002862:	0000                	unimp
10002864:	5245564f          	fnmadd.d	fa2,fa0,ft4,fa0,unknown
10002868:	0000                	unimp
1000286a:	0000                	unimp
1000286c:	5b20                	lw	s0,112(a4)
1000286e:	41524743          	fmadd.s	fa4,ft4,fs5,fs0,rmm
10002872:	205d                	jal	10002918 <_etext+0x78>
10002874:	63637553          	0x63637553
10002878:	7365                	lui	t1,0xffff9
1000287a:	21212173          	csrrs	sp,0x212,sp
1000287e:	2020                	fld	fs0,64(s0)
10002880:	0020                	addi	s0,sp,8
10002882:	0000                	unimp
10002884:	5b20                	lw	s0,112(a4)
10002886:	41524743          	fmadd.s	fa4,ft4,fs5,fs0,rmm
1000288a:	205d                	jal	10002930 <_etext+0x90>
1000288c:	6146                	flw	ft2,80(sp)
1000288e:	6c69                	lui	s8,0x1a
10002890:	2e2e                	fld	ft8,200(sp)
10002892:	202e                	fld	ft0,200(sp)
10002894:	2020                	fld	fs0,64(s0)
10002896:	2020                	fld	fs0,64(s0)
10002898:	0020                	addi	s0,sp,8
1000289a:	0000                	unimp
1000289c:	007c                	addi	a5,sp,12
	...

Disassembly of section .comment:

00000000 <.comment>:
   0:	3a434347          	fmsub.d	ft6,ft6,ft4,ft7,rmm
   4:	2820                	fld	fs0,80(s0)
   6:	29554e47          	fmsub.s	ft8,fa0,fs5,ft5,rmm
   a:	3820                	fld	fs0,112(s0)
   c:	322e                	fld	ft4,232(sp)
   e:	302e                	fld	ft0,232(sp)
	...
